
asm_compact_out:     file format elf32-littlearm


Disassembly of section .init:

000105b8 <_init>:
   105b8:	e92d4008 	push	{r3, lr}
   105bc:	eb000054 	bl	10714 <call_weak_fn>
   105c0:	e8bd8008 	pop	{r3, pc}

Disassembly of section .plt:

000105c4 <.plt>:
   105c4:	b500      	push	{lr}
   105c6:	f8df e008 	ldr.w	lr, [pc, #8]	; 105d0 <.plt+0xc>
   105ca:	44fe      	add	lr, pc
   105cc:	f85e ff08 	ldr.w	pc, [lr, #8]!
   105d0:	00012a30 	andeq	r2, r1, r0, lsr sl

000105d4 <__libc_start_main@plt>:
   105d4:	0000      	movs	r0, r0
   105d6:	0000      	movs	r0, r0
   105d8:	f642 2c28 	movw	ip, #10792	; 0x2a28
   105dc:	f2c0 0c01 	movt	ip, #1
   105e0:	44fc      	add	ip, pc
   105e2:	f8dc  	ldr.w	pc, [ip, #1602]	; 0x642

000105e4 <strcspn@plt>:
   105e4:	f642 2c20 	movw	ip, #10784	; 0x2a20
   105e8:	f2c0 0c01 	movt	ip, #1
   105ec:	44fc      	add	ip, pc
   105ee:	f8dc f642 	ldr.w	pc, [ip, #1602]	; 0x642
   105f2:	2c18      	cmp	r4, #24

000105f4 <fopen@plt>:
   105f4:	f2c0 0c01 	movt	ip, #1
   105f8:	44fc      	add	ip, pc
   105fa:	f8dc f642 	ldr.w	pc, [ip, #1602]	; 0x642
   105fe:	2c10      	cmp	r4, #16
   10600:	f2c0 0c01 	movt	ip, #1

00010604 <fgets@plt>:
   10604:	44fc      	add	ip, pc
   10606:	f8dc f642 	ldr.w	pc, [ip, #1602]	; 0x642
   1060a:	2c08      	cmp	r4, #8
   1060c:	f2c0 0c01 	movt	ip, #1
   10610:	44fc      	add	ip, pc
   10612:	f8dc  	ldr.w	pc, [ip, #1602]	; 0x642

00010614 <memcpy@plt>:
   10614:	f642 2c00 	movw	ip, #10752	; 0x2a00
   10618:	f2c0 0c01 	movt	ip, #1
   1061c:	44fc      	add	ip, pc
   1061e:	f8dc f642 	ldr.w	pc, [ip, #1602]	; 0x642
   10622:	1cf8      	adds	r0, r7, #3

00010624 <memcmp@plt>:
   10624:	f2c0 0c01 	movt	ip, #1
   10628:	44fc      	add	ip, pc
   1062a:	f8dc f642 	ldr.w	pc, [ip, #1602]	; 0x642
   1062e:	1cf0      	adds	r0, r6, #3
   10630:	f2c0 0c01 	movt	ip, #1

00010634 <__stack_chk_fail@plt>:
   10634:	44fc      	add	ip, pc
   10636:	f8dc f642 	ldr.w	pc, [ip, #1602]	; 0x642
   1063a:	1ce8      	adds	r0, r5, #3
   1063c:	f2c0 0c01 	movt	ip, #1
   10640:	44fc      	add	ip, pc
   10642:	f8dc  	ldr.w	pc, [ip, #1602]	; 0x642

00010644 <fwrite@plt>:
   10644:	f642 1ce0 	movw	ip, #10720	; 0x29e0
   10648:	f2c0 0c01 	movt	ip, #1
   1064c:	44fc      	add	ip, pc
   1064e:	f8dc f642 	ldr.w	pc, [ip, #1602]	; 0x642
   10652:	1cd8      	adds	r0, r3, #3

00010654 <__gmon_start__@plt>:
   10654:	f2c0 0c01 	movt	ip, #1
   10658:	44fc      	add	ip, pc
   1065a:	f8dc f642 	ldr.w	pc, [ip, #1602]	; 0x642
   1065e:	1cd0      	adds	r0, r2, #3
   10660:	f2c0 0c01 	movt	ip, #1

00010664 <clock@plt>:
   10664:	44fc      	add	ip, pc
   10666:	f8dc f642 	ldr.w	pc, [ip, #1602]	; 0x642
   1066a:	1cc8      	adds	r0, r1, #3
   1066c:	f2c0 0c01 	movt	ip, #1
   10670:	44fc      	add	ip, pc
   10672:	f8dc  	ldr.w	pc, [ip, #1602]	; 0x642

00010674 <exit@plt>:
   10674:	f642 1cc0 	movw	ip, #10688	; 0x29c0
   10678:	f2c0 0c01 	movt	ip, #1
   1067c:	44fc      	add	ip, pc
   1067e:	f8dc f642 	ldr.w	pc, [ip, #1602]	; 0x642
   10682:	1cb8      	adds	r0, r7, #2

00010684 <strlen@plt>:
   10684:	f2c0 0c01 	movt	ip, #1
   10688:	44fc      	add	ip, pc
   1068a:	f8dc f642 	ldr.w	pc, [ip, #1602]	; 0x642
   1068e:	1cb0      	adds	r0, r6, #2
   10690:	f2c0 0c01 	movt	ip, #1

00010694 <__isoc99_sscanf@plt>:
   10694:	44fc      	add	ip, pc
   10696:	f8dc f642 	ldr.w	pc, [ip, #1602]	; 0x642
   1069a:	1ca8      	adds	r0, r5, #2
   1069c:	f2c0 0c01 	movt	ip, #1
   106a0:	44fc      	add	ip, pc
   106a2:	f8dc  	ldr.w	pc, [ip, #1602]	; 0x642

000106a4 <memset@plt>:
   106a4:	f642 1ca0 	movw	ip, #10656	; 0x29a0
   106a8:	f2c0 0c01 	movt	ip, #1
   106ac:	44fc      	add	ip, pc
   106ae:	Address 0x00000000000106ae is out of bounds.


Disassembly of section .text:

000106b0 <main>:
   106b0:	b508      	push	{r3, lr}
   106b2:	f240 4041 	movw	r0, #1089	; 0x441
   106b6:	f242 7110 	movw	r1, #10000	; 0x2710
   106ba:	4b03      	ldr	r3, [pc, #12]	; (106c8 <__fprintf_chk@plt+0x4>)
   106bc:	4a03      	ldr	r2, [pc, #12]	; (106cc <__fprintf_chk@plt+0x8>)
   106be:	f000 fcbd 	bl	1103c <runTests>
   106c2:	2000      	movs	r0, #0
   106c4:	bd08      	pop	{r3, pc}
   106c6:	bf00      	nop
   106c8:	00012440 	andeq	r2, r1, r0, asr #8
   106cc:	00012460 	andeq	r2, r1, r0, ror #8

000106d0 <_start>:
   106d0:	e3a0b000 	mov	fp, #0
   106d4:	e3a0e000 	mov	lr, #0
   106d8:	e49d1004 	pop	{r1}		; (ldr r1, [sp], #4)
   106dc:	e1a0200d 	mov	r2, sp
   106e0:	e52d2004 	push	{r2}		; (str r2, [sp, #-4]!)
   106e4:	e52d0004 	push	{r0}		; (str r0, [sp, #-4]!)
   106e8:	e59fa01c 	ldr	sl, [pc, #28]	; 1070c <abort@plt+0x28>
   106ec:	e28f3018 	add	r3, pc, #24
   106f0:	e08aa003 	add	sl, sl, r3
   106f4:	e3a03000 	mov	r3, #0
   106f8:	e52d3004 	push	{r3}		; (str r3, [sp, #-4]!)
   106fc:	e59f000c 	ldr	r0, [pc, #12]	; 10710 <abort@plt+0x2c>
   10700:	e79a0000 	ldr	r0, [sl, r0]
   10704:	ebffffb3 	bl	105d8 <__libc_start_main@plt+0x4>
   10708:	ebffffe5 	bl	106a4 <memset@plt>
   1070c:	000128f4 	strdeq	r2, [r1], -r4
   10710:	00000058 	andeq	r0, r0, r8, asr r0

00010714 <call_weak_fn>:
   10714:	e59f3014 	ldr	r3, [pc, #20]	; 10730 <call_weak_fn+0x1c>
   10718:	e59f2014 	ldr	r2, [pc, #20]	; 10734 <call_weak_fn+0x20>
   1071c:	e08f3003 	add	r3, pc, r3
   10720:	e7932002 	ldr	r2, [r3, r2]
   10724:	e3520000 	cmp	r2, #0
   10728:	012fff1e 	bxeq	lr
   1072c:	eaffffc1 	b	10638 <__stack_chk_fail@plt+0x4>
   10730:	000128dc 	ldrdeq	r2, [r1], -ip
   10734:	00000054 	andeq	r0, r0, r4, asr r0

00010738 <deregister_tm_clones>:
   10738:	e59f0018 	ldr	r0, [pc, #24]	; 10758 <deregister_tm_clones+0x20>
   1073c:	e59f3018 	ldr	r3, [pc, #24]	; 1075c <deregister_tm_clones+0x24>
   10740:	e1530000 	cmp	r3, r0
   10744:	012fff1e 	bxeq	lr
   10748:	e59f3010 	ldr	r3, [pc, #16]	; 10760 <deregister_tm_clones+0x28>
   1074c:	e3530000 	cmp	r3, #0
   10750:	012fff1e 	bxeq	lr
   10754:	e12fff13 	bx	r3
   10758:	00023064 	andeq	r3, r2, r4, rrx
   1075c:	00023064 	andeq	r3, r2, r4, rrx
   10760:	00000000 	andeq	r0, r0, r0

00010764 <register_tm_clones>:
   10764:	e59f0024 	ldr	r0, [pc, #36]	; 10790 <register_tm_clones+0x2c>
   10768:	e59f3024 	ldr	r3, [pc, #36]	; 10794 <register_tm_clones+0x30>
   1076c:	e0433000 	sub	r3, r3, r0
   10770:	e1a01fa3 	lsr	r1, r3, #31
   10774:	e0811143 	add	r1, r1, r3, asr #2
   10778:	e1b010c1 	asrs	r1, r1, #1
   1077c:	012fff1e 	bxeq	lr
   10780:	e59f3010 	ldr	r3, [pc, #16]	; 10798 <register_tm_clones+0x34>
   10784:	e3530000 	cmp	r3, #0
   10788:	012fff1e 	bxeq	lr
   1078c:	e12fff13 	bx	r3
   10790:	00023064 	andeq	r3, r2, r4, rrx
   10794:	00023064 	andeq	r3, r2, r4, rrx
   10798:	00000000 	andeq	r0, r0, r0

0001079c <__do_global_dtors_aux>:
   1079c:	e92d4010 	push	{r4, lr}
   107a0:	e59f4018 	ldr	r4, [pc, #24]	; 107c0 <__do_global_dtors_aux+0x24>
   107a4:	e5d43000 	ldrb	r3, [r4]
   107a8:	e3530000 	cmp	r3, #0
   107ac:	18bd8010 	popne	{r4, pc}
   107b0:	ebffffe0 	bl	10738 <deregister_tm_clones>
   107b4:	e3a03001 	mov	r3, #1
   107b8:	e5c43000 	strb	r3, [r4]
   107bc:	e8bd8010 	pop	{r4, pc}
   107c0:	00023064 	andeq	r3, r2, r4, rrx

000107c4 <frame_dummy>:
   107c4:	eaffffe6 	b	10764 <register_tm_clones>

000107c8 <rotl>:
   107c8:	0043      	lsls	r3, r0, #1
   107ca:	ea43 10d0 	orr.w	r0, r3, r0, lsr #7
   107ce:	b2c0      	uxtb	r0, r0
   107d0:	4770      	bx	lr
   107d2:	bf00      	nop

000107d4 <LFSR_step>:
   107d4:	b500      	push	{lr}
   107d6:	788a      	ldrb	r2, [r1, #2]
   107d8:	780b      	ldrb	r3, [r1, #0]
   107da:	ea4f 0e42 	mov.w	lr, r2, lsl #1
   107de:	ea4e 1ed2 	orr.w	lr, lr, r2, lsr #7
   107e2:	005a      	lsls	r2, r3, #1
   107e4:	ea42 12d3 	orr.w	r2, r2, r3, lsr #7
   107e8:	460b      	mov	r3, r1
   107ea:	7b49      	ldrb	r1, [r1, #13]
   107ec:	ea8e 0e02 	eor.w	lr, lr, r2
   107f0:	ea8e 0e41 	eor.w	lr, lr, r1, lsl #1
   107f4:	fa5f fe8e 	uxtb.w	lr, lr
   107f8:	1e42      	subs	r2, r0, #1
   107fa:	f103 0c18 	add.w	ip, r3, #24
   107fe:	f813 1f01 	ldrb.w	r1, [r3, #1]!
   10802:	4563      	cmp	r3, ip
   10804:	f802 1f01 	strb.w	r1, [r2, #1]!
   10808:	d1f9      	bne.n	107fe <LFSR_step+0x2a>
   1080a:	f880 e018 	strb.w	lr, [r0, #24]
   1080e:	f85d fb04 	ldr.w	pc, [sp], #4
   10812:	bf00      	nop

00010814 <block_pad>:
   10814:	b538      	push	{r3, r4, r5, lr}
   10816:	4614      	mov	r4, r2
   10818:	4605      	mov	r5, r0
   1081a:	2100      	movs	r1, #0
   1081c:	9a04      	ldr	r2, [sp, #16]
   1081e:	4420      	add	r0, r4
   10820:	f7ff ff28 	bl	10674 <exit@plt>
   10824:	2301      	movs	r3, #1
   10826:	552b      	strb	r3, [r5, r4]
   10828:	bd38      	pop	{r3, r4, r5, pc}
   1082a:	bf00      	nop

0001082c <xor_int>:
   1082c:	2a00      	cmp	r2, #0
   1082e:	dd0c      	ble.n	1084a <xor_int+0x1e>
   10830:	3804      	subs	r0, #4
   10832:	3904      	subs	r1, #4
   10834:	eb00 0c82 	add.w	ip, r0, r2, lsl #2
   10838:	f850 3f04 	ldr.w	r3, [r0, #4]!
   1083c:	f851 2f04 	ldr.w	r2, [r1, #4]!
   10840:	4560      	cmp	r0, ip
   10842:	ea83 0302 	eor.w	r3, r3, r2
   10846:	6003      	str	r3, [r0, #0]
   10848:	d1f6      	bne.n	10838 <xor_int+0xc>
   1084a:	4770      	bx	lr

0001084c <block_ad_get>:
   1084c:	e92d 43f8 	stmdb	sp!, {r3, r4, r5, r6, r7, r8, r9, lr}
   10850:	e9dd 470a 	ldrd	r4, r7, [sp, #40]	; 0x28
   10854:	ea54 0307 	orrs.w	r3, r4, r7
   10858:	4606      	mov	r6, r0
   1085a:	e9dd 5e08 	ldrd	r5, lr, [sp, #32]
   1085e:	4694      	mov	ip, r2
   10860:	d02b      	beq.n	108ba <block_ad_get+0x6e>
   10862:	1923      	adds	r3, r4, r4
   10864:	eb47 0207 	adc.w	r2, r7, r7
   10868:	191b      	adds	r3, r3, r4
   1086a:	eb47 0202 	adc.w	r2, r7, r2
   1086e:	00d2      	lsls	r2, r2, #3
   10870:	ea42 7253 	orr.w	r2, r2, r3, lsr #29
   10874:	00db      	lsls	r3, r3, #3
   10876:	191b      	adds	r3, r3, r4
   10878:	eb47 0002 	adc.w	r0, r7, r2
   1087c:	f1b3 010c 	subs.w	r1, r3, #12
   10880:	461c      	mov	r4, r3
   10882:	f140 33ff 	adc.w	r3, r0, #4294967295	; 0xffffffff
   10886:	459e      	cmp	lr, r3
   10888:	bf08      	it	eq
   1088a:	428d      	cmpeq	r5, r1
   1088c:	d03c      	beq.n	10908 <block_ad_get+0xbc>
   1088e:	f04f 0819 	mov.w	r8, #25
   10892:	350c      	adds	r5, #12
   10894:	f14e 0300 	adc.w	r3, lr, #0
   10898:	1b2f      	subs	r7, r5, r4
   1089a:	eb63 0300 	sbc.w	r3, r3, r0
   1089e:	4547      	cmp	r7, r8
   108a0:	f173 0200 	sbcs.w	r2, r3, #0
   108a4:	f04f 0900 	mov.w	r9, #0
   108a8:	d318      	bcc.n	108dc <block_ad_get+0x90>
   108aa:	4642      	mov	r2, r8
   108ac:	eb06 0009 	add.w	r0, r6, r9
   108b0:	4461      	add	r1, ip
   108b2:	e8bd 43f8 	ldmia.w	sp!, {r3, r4, r5, r6, r7, r8, r9, lr}
   108b6:	f7ff bea7 	b.w	10608 <fgets@plt+0x4>
   108ba:	680f      	ldr	r7, [r1, #0]
   108bc:	688a      	ldr	r2, [r1, #8]
   108be:	6848      	ldr	r0, [r1, #4]
   108c0:	f04f 080d 	mov.w	r8, #13
   108c4:	6037      	str	r7, [r6, #0]
   108c6:	462f      	mov	r7, r5
   108c8:	4673      	mov	r3, lr
   108ca:	4547      	cmp	r7, r8
   108cc:	60b2      	str	r2, [r6, #8]
   108ce:	f173 0200 	sbcs.w	r2, r3, #0
   108d2:	4621      	mov	r1, r4
   108d4:	f04f 090c 	mov.w	r9, #12
   108d8:	6070      	str	r0, [r6, #4]
   108da:	d2e6      	bcs.n	108aa <block_ad_get+0x5e>
   108dc:	433b      	orrs	r3, r7
   108de:	d10c      	bne.n	108fa <block_ad_get+0xae>
   108e0:	eb17 0709 	adds.w	r7, r7, r9
   108e4:	eb18 0204 	adds.w	r2, r8, r4
   108e8:	2100      	movs	r1, #0
   108ea:	1b52      	subs	r2, r2, r5
   108ec:	19f0      	adds	r0, r6, r7
   108ee:	f7ff fec1 	bl	10674 <exit@plt>
   108f2:	2301      	movs	r3, #1
   108f4:	55f3      	strb	r3, [r6, r7]
   108f6:	e8bd 83f8 	ldmia.w	sp!, {r3, r4, r5, r6, r7, r8, r9, pc}
   108fa:	463a      	mov	r2, r7
   108fc:	4461      	add	r1, ip
   108fe:	eb06 0009 	add.w	r0, r6, r9
   10902:	f7ff fe81 	bl	10608 <fgets@plt+0x4>
   10906:	e7eb      	b.n	108e0 <block_ad_get+0x94>
   10908:	2300      	movs	r3, #0
   1090a:	2201      	movs	r2, #1
   1090c:	6033      	str	r3, [r6, #0]
   1090e:	6073      	str	r3, [r6, #4]
   10910:	60b3      	str	r3, [r6, #8]
   10912:	60f3      	str	r3, [r6, #12]
   10914:	6133      	str	r3, [r6, #16]
   10916:	6173      	str	r3, [r6, #20]
   10918:	7633      	strb	r3, [r6, #24]
   1091a:	7032      	strb	r2, [r6, #0]
   1091c:	e7eb      	b.n	108f6 <block_ad_get+0xaa>
   1091e:	bf00      	nop

00010920 <block_c_get>:
   10920:	e92d 41f0 	stmdb	sp!, {r4, r5, r6, r7, r8, lr}
   10924:	e9dd 5606 	ldrd	r5, r6, [sp, #24]
   10928:	196c      	adds	r4, r5, r5
   1092a:	eb46 0c06 	adc.w	ip, r6, r6
   1092e:	1964      	adds	r4, r4, r5
   10930:	eb46 0c0c 	adc.w	ip, r6, ip
   10934:	ea4f 0ccc 	mov.w	ip, ip, lsl #3
   10938:	ea4c 7c54 	orr.w	ip, ip, r4, lsr #29
   1093c:	00e4      	lsls	r4, r4, #3
   1093e:	1964      	adds	r4, r4, r5
   10940:	eb46 060c 	adc.w	r6, r6, ip
   10944:	429e      	cmp	r6, r3
   10946:	bf08      	it	eq
   10948:	4294      	cmpeq	r4, r2
   1094a:	4605      	mov	r5, r0
   1094c:	d02c      	beq.n	109a8 <block_c_get+0x88>
   1094e:	ebb2 0804 	subs.w	r8, r2, r4
   10952:	eb63 0306 	sbc.w	r3, r3, r6
   10956:	f1b8 0f19 	cmp.w	r8, #25
   1095a:	f173 0300 	sbcs.w	r3, r3, #0
   1095e:	4617      	mov	r7, r2
   10960:	eb01 0204 	add.w	r2, r1, r4
   10964:	d210      	bcs.n	10988 <block_c_get+0x68>
   10966:	4611      	mov	r1, r2
   10968:	4642      	mov	r2, r8
   1096a:	f7ff fe4d 	bl	10608 <fgets@plt+0x4>
   1096e:	f1d7 0219 	rsbs	r2, r7, #25
   10972:	2100      	movs	r1, #0
   10974:	1912      	adds	r2, r2, r4
   10976:	eb05 0008 	add.w	r0, r5, r8
   1097a:	f7ff fe7b 	bl	10674 <exit@plt>
   1097e:	2301      	movs	r3, #1
   10980:	f805 3008 	strb.w	r3, [r5, r8]
   10984:	e8bd 81f0 	ldmia.w	sp!, {r4, r5, r6, r7, r8, pc}
   10988:	5909      	ldr	r1, [r1, r4]
   1098a:	6853      	ldr	r3, [r2, #4]
   1098c:	6894      	ldr	r4, [r2, #8]
   1098e:	68d0      	ldr	r0, [r2, #12]
   10990:	6029      	str	r1, [r5, #0]
   10992:	606b      	str	r3, [r5, #4]
   10994:	60ac      	str	r4, [r5, #8]
   10996:	60e8      	str	r0, [r5, #12]
   10998:	6953      	ldr	r3, [r2, #20]
   1099a:	6911      	ldr	r1, [r2, #16]
   1099c:	616b      	str	r3, [r5, #20]
   1099e:	6129      	str	r1, [r5, #16]
   109a0:	7e13      	ldrb	r3, [r2, #24]
   109a2:	762b      	strb	r3, [r5, #24]
   109a4:	e8bd 81f0 	ldmia.w	sp!, {r4, r5, r6, r7, r8, pc}
   109a8:	2300      	movs	r3, #0
   109aa:	2201      	movs	r2, #1
   109ac:	6003      	str	r3, [r0, #0]
   109ae:	6043      	str	r3, [r0, #4]
   109b0:	6083      	str	r3, [r0, #8]
   109b2:	60c3      	str	r3, [r0, #12]
   109b4:	6103      	str	r3, [r0, #16]
   109b6:	6143      	str	r3, [r0, #20]
   109b8:	7603      	strb	r3, [r0, #24]
   109ba:	7002      	strb	r2, [r0, #0]
   109bc:	e8bd 81f0 	ldmia.w	sp!, {r4, r5, r6, r7, r8, pc}

000109c0 <delirium_aead>:
   109c0:	e92d 4ff0 	stmdb	sp!, {r4, r5, r6, r7, r8, r9, sl, fp, lr}
   109c4:	f5ad 7d01 	sub.w	sp, sp, #516	; 0x204
   109c8:	9e8b      	ldr	r6, [sp, #556]	; 0x22c
   109ca:	9d8a      	ldr	r5, [sp, #552]	; 0x228
   109cc:	4bbc      	ldr	r3, [pc, #752]	; (10cc0 <delirium_aead+0x300>)
   109ce:	9514      	str	r5, [sp, #80]	; 0x50
   109d0:	9617      	str	r6, [sp, #92]	; 0x5c
   109d2:	681b      	ldr	r3, [r3, #0]
   109d4:	937f      	str	r3, [sp, #508]	; 0x1fc
   109d6:	f04f 0300 	mov.w	r3, #0
   109da:	0d2b      	lsrs	r3, r5, #20
   109dc:	ea43 3306 	orr.w	r3, r3, r6, lsl #12
   109e0:	f3c3 0413 	ubfx	r4, r3, #0, #20
   109e4:	f3c5 0313 	ubfx	r3, r5, #0, #20
   109e8:	4423      	add	r3, r4
   109ea:	f3c6 2413 	ubfx	r4, r6, #8, #20
   109ee:	4423      	add	r3, r4
   109f0:	9212      	str	r2, [sp, #72]	; 0x48
   109f2:	4ab4      	ldr	r2, [pc, #720]	; (10cc4 <delirium_aead+0x304>)
   109f4:	eb03 7316 	add.w	r3, r3, r6, lsr #28
   109f8:	9115      	str	r1, [sp, #84]	; 0x54
   109fa:	fba2 1203 	umull	r1, r2, r2, r3
   109fe:	08d2      	lsrs	r2, r2, #3
   10a00:	eb02 0282 	add.w	r2, r2, r2, lsl #2
   10a04:	eb02 0282 	add.w	r2, r2, r2, lsl #2
   10a08:	1a9b      	subs	r3, r3, r2
   10a0a:	4caf      	ldr	r4, [pc, #700]	; (10cc8 <delirium_aead+0x308>)
   10a0c:	1ae9      	subs	r1, r5, r3
   10a0e:	fb01 f404 	mul.w	r4, r1, r4
   10a12:	4aae      	ldr	r2, [pc, #696]	; (10ccc <delirium_aead+0x30c>)
   10a14:	9011      	str	r0, [sp, #68]	; 0x44
   10a16:	f166 0000 	sbc.w	r0, r6, #0
   10a1a:	fb02 4400 	mla	r4, r2, r0, r4
   10a1e:	fba1 2102 	umull	r2, r1, r1, r2
   10a22:	440c      	add	r4, r1
   10a24:	998c      	ldr	r1, [sp, #560]	; 0x230
   10a26:	9113      	str	r1, [sp, #76]	; 0x4c
   10a28:	998e      	ldr	r1, [sp, #568]	; 0x238
   10a2a:	910f      	str	r1, [sp, #60]	; 0x3c
   10a2c:	998f      	ldr	r1, [sp, #572]	; 0x23c
   10a2e:	9110      	str	r1, [sp, #64]	; 0x40
   10a30:	9991      	ldr	r1, [sp, #580]	; 0x244
   10a32:	910e      	str	r1, [sp, #56]	; 0x38
   10a34:	e9dd 8192 	ldrd	r8, r1, [sp, #584]	; 0x248
   10a38:	2b00      	cmp	r3, #0
   10a3a:	f000 8206 	beq.w	10e4a <delirium_aead+0x48a>
   10a3e:	1c53      	adds	r3, r2, #1
   10a40:	9306      	str	r3, [sp, #24]
   10a42:	f144 0300 	adc.w	r3, r4, #0
   10a46:	9307      	str	r3, [sp, #28]
   10a48:	9b0f      	ldr	r3, [sp, #60]	; 0x3c
   10a4a:	4f9e      	ldr	r7, [pc, #632]	; (10cc4 <delirium_aead+0x304>)
   10a4c:	f113 060c 	adds.w	r6, r3, #12
   10a50:	9b10      	ldr	r3, [sp, #64]	; 0x40
   10a52:	f3c6 0013 	ubfx	r0, r6, #0, #20
   10a56:	f143 0500 	adc.w	r5, r3, #0
   10a5a:	0d33      	lsrs	r3, r6, #20
   10a5c:	ea43 3305 	orr.w	r3, r3, r5, lsl #12
   10a60:	f3c3 0313 	ubfx	r3, r3, #0, #20
   10a64:	4403      	add	r3, r0
   10a66:	f3c5 2013 	ubfx	r0, r5, #8, #20
   10a6a:	4403      	add	r3, r0
   10a6c:	eb03 7315 	add.w	r3, r3, r5, lsr #28
   10a70:	fba7 7003 	umull	r7, r0, r7, r3
   10a74:	08c0      	lsrs	r0, r0, #3
   10a76:	eb00 0080 	add.w	r0, r0, r0, lsl #2
   10a7a:	eb00 0080 	add.w	r0, r0, r0, lsl #2
   10a7e:	1a1b      	subs	r3, r3, r0
   10a80:	1af3      	subs	r3, r6, r3
   10a82:	f165 0600 	sbc.w	r6, r5, #0
   10a86:	4d90      	ldr	r5, [pc, #576]	; (10cc8 <delirium_aead+0x308>)
   10a88:	4890      	ldr	r0, [pc, #576]	; (10ccc <delirium_aead+0x30c>)
   10a8a:	fb03 f505 	mul.w	r5, r3, r5
   10a8e:	fb00 5506 	mla	r5, r0, r6, r5
   10a92:	fba3 3000 	umull	r3, r0, r3, r0
   10a96:	1c5e      	adds	r6, r3, #1
   10a98:	960a      	str	r6, [sp, #40]	; 0x28
   10a9a:	eb45 0600 	adc.w	r6, r5, r0
   10a9e:	3202      	adds	r2, #2
   10aa0:	f144 0400 	adc.w	r4, r4, #0
   10aa4:	1828      	adds	r0, r5, r0
   10aa6:	4293      	cmp	r3, r2
   10aa8:	9308      	str	r3, [sp, #32]
   10aaa:	960b      	str	r6, [sp, #44]	; 0x2c
   10aac:	eb70 0304 	sbcs.w	r3, r0, r4
   10ab0:	f04f 0600 	mov.w	r6, #0
   10ab4:	9009      	str	r0, [sp, #36]	; 0x24
   10ab6:	920c      	str	r2, [sp, #48]	; 0x30
   10ab8:	bf38      	it	cc
   10aba:	e9cd 2408 	strdcc	r2, r4, [sp, #32]
   10abe:	e9dd 2311 	ldrd	r2, r3, [sp, #68]	; 0x44
   10ac2:	2900      	cmp	r1, #0
   10ac4:	bf18      	it	ne
   10ac6:	4613      	movne	r3, r2
   10ac8:	a834      	add	r0, sp, #208	; 0xd0
   10aca:	4631      	mov	r1, r6
   10acc:	2264      	movs	r2, #100	; 0x64
   10ace:	9316      	str	r3, [sp, #88]	; 0x58
   10ad0:	940d      	str	r4, [sp, #52]	; 0x34
   10ad2:	e9cd 6618 	strd	r6, r6, [sp, #96]	; 0x60
   10ad6:	e9cd 661a 	strd	r6, r6, [sp, #104]	; 0x68
   10ada:	e9cd 661c 	strd	r6, r6, [sp, #112]	; 0x70
   10ade:	961e      	str	r6, [sp, #120]	; 0x78
   10ae0:	f7ff fdc8 	bl	10674 <exit@plt>
   10ae4:	4631      	mov	r1, r6
   10ae6:	224c      	movs	r2, #76	; 0x4c
   10ae8:	a853      	add	r0, sp, #332	; 0x14c
   10aea:	f7ff fdc3 	bl	10674 <exit@plt>
   10aee:	4631      	mov	r1, r6
   10af0:	2264      	movs	r2, #100	; 0x64
   10af2:	a866      	add	r0, sp, #408	; 0x198
   10af4:	f7ff fdbe 	bl	10674 <exit@plt>
   10af8:	f8d8 0000 	ldr.w	r0, [r8]
   10afc:	f8d8 1004 	ldr.w	r1, [r8, #4]
   10b00:	f8d8 2008 	ldr.w	r2, [r8, #8]
   10b04:	f8d8 300c 	ldr.w	r3, [r8, #12]
   10b08:	af26      	add	r7, sp, #152	; 0x98
   10b0a:	e9cd 662a 	strd	r6, r6, [sp, #168]	; 0xa8
   10b0e:	962c      	str	r6, [sp, #176]	; 0xb0
   10b10:	c70f      	stmia	r7!, {r0, r1, r2, r3}
   10b12:	a826      	add	r0, sp, #152	; 0x98
   10b14:	f000 fd4e 	bl	115b4 <KeccakP200_Permute_18rounds>
   10b18:	9b0f      	ldr	r3, [sp, #60]	; 0x3c
   10b1a:	2200      	movs	r2, #0
   10b1c:	9300      	str	r3, [sp, #0]
   10b1e:	9b10      	ldr	r3, [sp, #64]	; 0x40
   10b20:	f10d 0e98 	add.w	lr, sp, #152	; 0x98
   10b24:	9301      	str	r3, [sp, #4]
   10b26:	2300      	movs	r3, #0
   10b28:	e9cd 2302 	strd	r2, r3, [sp, #8]
   10b2c:	f50d 7c9a 	add.w	ip, sp, #308	; 0x134
   10b30:	e8be 000f 	ldmia.w	lr!, {r0, r1, r2, r3}
   10b34:	e8ac 000f 	stmia.w	ip!, {r0, r1, r2, r3}
   10b38:	e897 0007 	ldmia.w	r7, {r0, r1, r2}
   10b3c:	e8ac 0003 	stmia.w	ip!, {r0, r1}
   10b40:	990e      	ldr	r1, [sp, #56]	; 0x38
   10b42:	f88c 2000 	strb.w	r2, [ip]
   10b46:	a82d      	add	r0, sp, #180	; 0xb4
   10b48:	9a13      	ldr	r2, [sp, #76]	; 0x4c
   10b4a:	2501      	movs	r5, #1
   10b4c:	e9cd 662d 	strd	r6, r6, [sp, #180]	; 0xb4
   10b50:	e9cd 662f 	strd	r6, r6, [sp, #188]	; 0xbc
   10b54:	e9cd 6631 	strd	r6, r6, [sp, #196]	; 0xc4
   10b58:	ac25      	add	r4, sp, #148	; 0x94
   10b5a:	9633      	str	r6, [sp, #204]	; 0xcc
   10b5c:	9605      	str	r6, [sp, #20]
   10b5e:	f10d 0bcc 	add.w	fp, sp, #204	; 0xcc
   10b62:	f7ff fe73 	bl	1084c <block_ad_get>
   10b66:	e030      	b.n	10bca <delirium_aead+0x20a>
   10b68:	9b0a      	ldr	r3, [sp, #40]	; 0x28
   10b6a:	f115 0a01 	adds.w	sl, r5, #1
   10b6e:	f146 0800 	adc.w	r8, r6, #0
   10b72:	4553      	cmp	r3, sl
   10b74:	9b0b      	ldr	r3, [sp, #44]	; 0x2c
   10b76:	eb73 0308 	sbcs.w	r3, r3, r8
   10b7a:	f080 80a9 	bcs.w	10cd0 <delirium_aead+0x310>
   10b7e:	2d01      	cmp	r5, #1
   10b80:	d005      	beq.n	10b8e <delirium_aead+0x1ce>
   10b82:	9b0c      	ldr	r3, [sp, #48]	; 0x30
   10b84:	42ab      	cmp	r3, r5
   10b86:	9b0d      	ldr	r3, [sp, #52]	; 0x34
   10b88:	41b3      	sbcs	r3, r6
   10b8a:	f080 80ea 	bcs.w	10d62 <delirium_aead+0x3a2>
   10b8e:	f50d 7c9a 	add.w	ip, sp, #308	; 0x134
   10b92:	4665      	mov	r5, ip
   10b94:	e8bc 000f 	ldmia.w	ip!, {r0, r1, r2, r3}
   10b98:	ae34      	add	r6, sp, #208	; 0xd0
   10b9a:	c60f      	stmia	r6!, {r0, r1, r2, r3}
   10b9c:	e89c 0007 	ldmia.w	ip, {r0, r1, r2}
   10ba0:	c603      	stmia	r6!, {r0, r1}
   10ba2:	af66      	add	r7, sp, #408	; 0x198
   10ba4:	7032      	strb	r2, [r6, #0]
   10ba6:	cf0f      	ldmia	r7!, {r0, r1, r2, r3}
   10ba8:	c50f      	stmia	r5!, {r0, r1, r2, r3}
   10baa:	e897 0007 	ldmia.w	r7, {r0, r1, r2}
   10bae:	9b05      	ldr	r3, [sp, #20]
   10bb0:	c503      	stmia	r5!, {r0, r1}
   10bb2:	3319      	adds	r3, #25
   10bb4:	9305      	str	r3, [sp, #20]
   10bb6:	9b08      	ldr	r3, [sp, #32]
   10bb8:	702a      	strb	r2, [r5, #0]
   10bba:	4553      	cmp	r3, sl
   10bbc:	9b09      	ldr	r3, [sp, #36]	; 0x24
   10bbe:	eb73 0308 	sbcs.w	r3, r3, r8
   10bc2:	f0c0 8118 	bcc.w	10df6 <delirium_aead+0x436>
   10bc6:	4655      	mov	r5, sl
   10bc8:	4646      	mov	r6, r8
   10bca:	a94d      	add	r1, sp, #308	; 0x134
   10bcc:	a866      	add	r0, sp, #408	; 0x198
   10bce:	f7ff fe01 	bl	107d4 <LFSR_step>
   10bd2:	9b06      	ldr	r3, [sp, #24]
   10bd4:	42ab      	cmp	r3, r5
   10bd6:	9b07      	ldr	r3, [sp, #28]
   10bd8:	41b3      	sbcs	r3, r6
   10bda:	d3c5      	bcc.n	10b68 <delirium_aead+0x1a8>
   10bdc:	f10d 085c 	add.w	r8, sp, #92	; 0x5c
   10be0:	4647      	mov	r7, r8
   10be2:	f10d 0e60 	add.w	lr, sp, #96	; 0x60
   10be6:	f50d 799a 	add.w	r9, sp, #308	; 0x134
   10bea:	e8b9 000f 	ldmia.w	r9!, {r0, r1, r2, r3}
   10bee:	e8ae 000f 	stmia.w	lr!, {r0, r1, r2, r3}
   10bf2:	e899 0007 	ldmia.w	r9, {r0, r1, r2}
   10bf6:	e8ae 0003 	stmia.w	lr!, {r0, r1}
   10bfa:	f50d 7cca 	add.w	ip, sp, #404	; 0x194
   10bfe:	f88e 2000 	strb.w	r2, [lr]
   10c02:	f857 3f04 	ldr.w	r3, [r7, #4]!
   10c06:	f85c 2f04 	ldr.w	r2, [ip, #4]!
   10c0a:	4053      	eors	r3, r2
   10c0c:	603b      	str	r3, [r7, #0]
   10c0e:	ab1e      	add	r3, sp, #120	; 0x78
   10c10:	429f      	cmp	r7, r3
   10c12:	d1f6      	bne.n	10c02 <delirium_aead+0x242>
   10c14:	f04f 0900 	mov.w	r9, #0
   10c18:	461f      	mov	r7, r3
   10c1a:	46c4      	mov	ip, r8
   10c1c:	9a0e      	ldr	r2, [sp, #56]	; 0x38
   10c1e:	f10d 0e7c 	add.w	lr, sp, #124	; 0x7c
   10c22:	6810      	ldr	r0, [r2, #0]
   10c24:	6851      	ldr	r1, [r2, #4]
   10c26:	6892      	ldr	r2, [r2, #8]
   10c28:	f8cd 9090 	str.w	r9, [sp, #144]	; 0x90
   10c2c:	e8ae 0007 	stmia.w	lr!, {r0, r1, r2}
   10c30:	e9cd 9922 	strd	r9, r9, [sp, #136]	; 0x88
   10c34:	f88d 9094 	strb.w	r9, [sp, #148]	; 0x94
   10c38:	f853 2f04 	ldr.w	r2, [r3, #4]!
   10c3c:	f85c 1f04 	ldr.w	r1, [ip, #4]!
   10c40:	42a3      	cmp	r3, r4
   10c42:	ea82 0201 	eor.w	r2, r2, r1
   10c46:	601a      	str	r2, [r3, #0]
   10c48:	d1f6      	bne.n	10c38 <delirium_aead+0x278>
   10c4a:	a81f      	add	r0, sp, #124	; 0x7c
   10c4c:	f000 fcb2 	bl	115b4 <KeccakP200_Permute_18rounds>
   10c50:	9a12      	ldr	r2, [sp, #72]	; 0x48
   10c52:	9905      	ldr	r1, [sp, #20]
   10c54:	ab1e      	add	r3, sp, #120	; 0x78
   10c56:	1851      	adds	r1, r2, r1
   10c58:	f853 2f04 	ldr.w	r2, [r3, #4]!
   10c5c:	f851 0b04 	ldr.w	r0, [r1], #4
   10c60:	42a3      	cmp	r3, r4
   10c62:	ea82 0200 	eor.w	r2, r2, r0
   10c66:	601a      	str	r2, [r3, #0]
   10c68:	d1f6      	bne.n	10c58 <delirium_aead+0x298>
   10c6a:	f857 3f04 	ldr.w	r3, [r7, #4]!
   10c6e:	f858 2f04 	ldr.w	r2, [r8, #4]!
   10c72:	42a7      	cmp	r7, r4
   10c74:	ea83 0302 	eor.w	r3, r3, r2
   10c78:	603b      	str	r3, [r7, #0]
   10c7a:	d1f6      	bne.n	10c6a <delirium_aead+0x2aa>
   10c7c:	9b11      	ldr	r3, [sp, #68]	; 0x44
   10c7e:	9a05      	ldr	r2, [sp, #20]
   10c80:	eb03 0c02 	add.w	ip, r3, r2
   10c84:	e9dd 3206 	ldrd	r3, r2, [sp, #24]
   10c88:	42b2      	cmp	r2, r6
   10c8a:	bf08      	it	eq
   10c8c:	42ab      	cmpeq	r3, r5
   10c8e:	f000 80df 	beq.w	10e50 <delirium_aead+0x490>
   10c92:	f8dd e044 	ldr.w	lr, [sp, #68]	; 0x44
   10c96:	f8dd 8014 	ldr.w	r8, [sp, #20]
   10c9a:	af1f      	add	r7, sp, #124	; 0x7c
   10c9c:	cf0f      	ldmia	r7!, {r0, r1, r2, r3}
   10c9e:	f84e 0008 	str.w	r0, [lr, r8]
   10ca2:	f8cc 1004 	str.w	r1, [ip, #4]
   10ca6:	f8cc 300c 	str.w	r3, [ip, #12]
   10caa:	cf03      	ldmia	r7!, {r0, r1}
   10cac:	783b      	ldrb	r3, [r7, #0]
   10cae:	f8cc 2008 	str.w	r2, [ip, #8]
   10cb2:	f8cc 0010 	str.w	r0, [ip, #16]
   10cb6:	f8cc 1014 	str.w	r1, [ip, #20]
   10cba:	f88c 3018 	strb.w	r3, [ip, #24]
   10cbe:	e753      	b.n	10b68 <delirium_aead+0x1a8>
   10cc0:	00022f08 	andeq	r2, r2, r8, lsl #30
   10cc4:	51eb851f 	mvnpl	r8, pc, lsl r5
   10cc8:	8f5c28f5 	svchi	0x005c28f5
   10ccc:	c28f5c29 	addgt	r5, pc, #10496	; 0x2900
   10cd0:	9b0f      	ldr	r3, [sp, #60]	; 0x3c
   10cd2:	990e      	ldr	r1, [sp, #56]	; 0x38
   10cd4:	9300      	str	r3, [sp, #0]
   10cd6:	9b10      	ldr	r3, [sp, #64]	; 0x40
   10cd8:	e9cd 5602 	strd	r5, r6, [sp, #8]
   10cdc:	9301      	str	r3, [sp, #4]
   10cde:	9a13      	ldr	r2, [sp, #76]	; 0x4c
   10ce0:	a81f      	add	r0, sp, #124	; 0x7c
   10ce2:	af1e      	add	r7, sp, #120	; 0x78
   10ce4:	f50d 79ca 	add.w	r9, sp, #404	; 0x194
   10ce8:	f7ff fdb0 	bl	1084c <block_ad_get>
   10cec:	4649      	mov	r1, r9
   10cee:	463b      	mov	r3, r7
   10cf0:	f853 2f04 	ldr.w	r2, [r3, #4]!
   10cf4:	f851 0f04 	ldr.w	r0, [r1, #4]!
   10cf8:	42a3      	cmp	r3, r4
   10cfa:	ea82 0200 	eor.w	r2, r2, r0
   10cfe:	601a      	str	r2, [r3, #0]
   10d00:	d1f6      	bne.n	10cf0 <delirium_aead+0x330>
   10d02:	a81f      	add	r0, sp, #124	; 0x7c
   10d04:	f000 fc56 	bl	115b4 <KeccakP200_Permute_18rounds>
   10d08:	463b      	mov	r3, r7
   10d0a:	f853 2f04 	ldr.w	r2, [r3, #4]!
   10d0e:	f859 1f04 	ldr.w	r1, [r9, #4]!
   10d12:	42a3      	cmp	r3, r4
   10d14:	ea82 0201 	eor.w	r2, r2, r1
   10d18:	601a      	str	r2, [r3, #0]
   10d1a:	d1f6      	bne.n	10d0a <delirium_aead+0x34a>
   10d1c:	ab2c      	add	r3, sp, #176	; 0xb0
   10d1e:	f853 2f04 	ldr.w	r2, [r3, #4]!
   10d22:	f857 1f04 	ldr.w	r1, [r7, #4]!
   10d26:	459b      	cmp	fp, r3
   10d28:	ea82 0201 	eor.w	r2, r2, r1
   10d2c:	601a      	str	r2, [r3, #0]
   10d2e:	d1f6      	bne.n	10d1e <delirium_aead+0x35e>
   10d30:	2d01      	cmp	r5, #1
   10d32:	f47f af26 	bne.w	10b82 <delirium_aead+0x1c2>
   10d36:	f50d 7c9a 	add.w	ip, sp, #308	; 0x134
   10d3a:	4665      	mov	r5, ip
   10d3c:	9b05      	ldr	r3, [sp, #20]
   10d3e:	ae34      	add	r6, sp, #208	; 0xd0
   10d40:	3319      	adds	r3, #25
   10d42:	9305      	str	r3, [sp, #20]
   10d44:	e8bc 000f 	ldmia.w	ip!, {r0, r1, r2, r3}
   10d48:	c60f      	stmia	r6!, {r0, r1, r2, r3}
   10d4a:	e89c 0007 	ldmia.w	ip, {r0, r1, r2}
   10d4e:	c603      	stmia	r6!, {r0, r1}
   10d50:	af66      	add	r7, sp, #408	; 0x198
   10d52:	7032      	strb	r2, [r6, #0]
   10d54:	cf0f      	ldmia	r7!, {r0, r1, r2, r3}
   10d56:	c50f      	stmia	r5!, {r0, r1, r2, r3}
   10d58:	e897 0007 	ldmia.w	r7, {r0, r1, r2}
   10d5c:	c503      	stmia	r5!, {r0, r1}
   10d5e:	702a      	strb	r2, [r5, #0]
   10d60:	e731      	b.n	10bc6 <delirium_aead+0x206>
   10d62:	ab34      	add	r3, sp, #208	; 0xd0
   10d64:	461f      	mov	r7, r3
   10d66:	f10d 0e60 	add.w	lr, sp, #96	; 0x60
   10d6a:	f10d 095c 	add.w	r9, sp, #92	; 0x5c
   10d6e:	cf0f      	ldmia	r7!, {r0, r1, r2, r3}
   10d70:	e8ae 000f 	stmia.w	lr!, {r0, r1, r2, r3}
   10d74:	e897 0007 	ldmia.w	r7, {r0, r1, r2}
   10d78:	464f      	mov	r7, r9
   10d7a:	e8ae 0003 	stmia.w	lr!, {r0, r1}
   10d7e:	f50d 7cca 	add.w	ip, sp, #404	; 0x194
   10d82:	f88e 2000 	strb.w	r2, [lr]
   10d86:	f857 3f04 	ldr.w	r3, [r7, #4]!
   10d8a:	f85c 2f04 	ldr.w	r2, [ip, #4]!
   10d8e:	4053      	eors	r3, r2
   10d90:	603b      	str	r3, [r7, #0]
   10d92:	ab1e      	add	r3, sp, #120	; 0x78
   10d94:	42bb      	cmp	r3, r7
   10d96:	d1f6      	bne.n	10d86 <delirium_aead+0x3c6>
   10d98:	e9dd 1316 	ldrd	r1, r3, [sp, #88]	; 0x58
   10d9c:	3d02      	subs	r5, #2
   10d9e:	f146 36ff 	adc.w	r6, r6, #4294967295	; 0xffffffff
   10da2:	9500      	str	r5, [sp, #0]
   10da4:	9a14      	ldr	r2, [sp, #80]	; 0x50
   10da6:	9601      	str	r6, [sp, #4]
   10da8:	a81f      	add	r0, sp, #124	; 0x7c
   10daa:	ad1e      	add	r5, sp, #120	; 0x78
   10dac:	f7ff fdb8 	bl	10920 <block_c_get>
   10db0:	4649      	mov	r1, r9
   10db2:	462b      	mov	r3, r5
   10db4:	f853 2f04 	ldr.w	r2, [r3, #4]!
   10db8:	f851 0f04 	ldr.w	r0, [r1, #4]!
   10dbc:	429c      	cmp	r4, r3
   10dbe:	ea82 0200 	eor.w	r2, r2, r0
   10dc2:	601a      	str	r2, [r3, #0]
   10dc4:	d1f6      	bne.n	10db4 <delirium_aead+0x3f4>
   10dc6:	a81f      	add	r0, sp, #124	; 0x7c
   10dc8:	f000 fbf4 	bl	115b4 <KeccakP200_Permute_18rounds>
   10dcc:	ab1e      	add	r3, sp, #120	; 0x78
   10dce:	f853 2f04 	ldr.w	r2, [r3, #4]!
   10dd2:	f859 1f04 	ldr.w	r1, [r9, #4]!
   10dd6:	429c      	cmp	r4, r3
   10dd8:	ea82 0201 	eor.w	r2, r2, r1
   10ddc:	601a      	str	r2, [r3, #0]
   10dde:	d1f6      	bne.n	10dce <delirium_aead+0x40e>
   10de0:	ab2c      	add	r3, sp, #176	; 0xb0
   10de2:	f853 2f04 	ldr.w	r2, [r3, #4]!
   10de6:	f855 1f04 	ldr.w	r1, [r5, #4]!
   10dea:	459b      	cmp	fp, r3
   10dec:	ea82 0201 	eor.w	r2, r2, r1
   10df0:	601a      	str	r2, [r3, #0]
   10df2:	d1f6      	bne.n	10de2 <delirium_aead+0x422>
   10df4:	e6cb      	b.n	10b8e <delirium_aead+0x1ce>
   10df6:	ad2c      	add	r5, sp, #176	; 0xb0
   10df8:	462b      	mov	r3, r5
   10dfa:	4621      	mov	r1, r4
   10dfc:	f853 2f04 	ldr.w	r2, [r3, #4]!
   10e00:	f851 0f04 	ldr.w	r0, [r1, #4]!
   10e04:	459b      	cmp	fp, r3
   10e06:	ea82 0200 	eor.w	r2, r2, r0
   10e0a:	601a      	str	r2, [r3, #0]
   10e0c:	d1f6      	bne.n	10dfc <delirium_aead+0x43c>
   10e0e:	a82d      	add	r0, sp, #180	; 0xb4
   10e10:	f000 fbd0 	bl	115b4 <KeccakP200_Permute_18rounds>
   10e14:	f855 3f04 	ldr.w	r3, [r5, #4]!
   10e18:	f854 2f04 	ldr.w	r2, [r4, #4]!
   10e1c:	45ab      	cmp	fp, r5
   10e1e:	ea83 0302 	eor.w	r3, r3, r2
   10e22:	602b      	str	r3, [r5, #0]
   10e24:	d1f6      	bne.n	10e14 <delirium_aead+0x454>
   10e26:	ac2d      	add	r4, sp, #180	; 0xb4
   10e28:	cc0f      	ldmia	r4!, {r0, r1, r2, r3}
   10e2a:	9c15      	ldr	r4, [sp, #84]	; 0x54
   10e2c:	60e3      	str	r3, [r4, #12]
   10e2e:	4b0d      	ldr	r3, [pc, #52]	; (10e64 <delirium_aead+0x4a4>)
   10e30:	6020      	str	r0, [r4, #0]
   10e32:	6061      	str	r1, [r4, #4]
   10e34:	60a2      	str	r2, [r4, #8]
   10e36:	681a      	ldr	r2, [r3, #0]
   10e38:	9b7f      	ldr	r3, [sp, #508]	; 0x1fc
   10e3a:	405a      	eors	r2, r3
   10e3c:	f04f 0300 	mov.w	r3, #0
   10e40:	d10e      	bne.n	10e60 <delirium_aead+0x4a0>
   10e42:	f50d 7d01 	add.w	sp, sp, #516	; 0x204
   10e46:	e8bd 8ff0 	ldmia.w	sp!, {r4, r5, r6, r7, r8, r9, sl, fp, pc}
   10e4a:	e9cd 2406 	strd	r2, r4, [sp, #24]
   10e4e:	e5fb      	b.n	10a48 <delirium_aead+0x88>
   10e50:	9b14      	ldr	r3, [sp, #80]	; 0x50
   10e52:	9a05      	ldr	r2, [sp, #20]
   10e54:	4660      	mov	r0, ip
   10e56:	a91f      	add	r1, sp, #124	; 0x7c
   10e58:	1a9a      	subs	r2, r3, r2
   10e5a:	f7ff fbd5 	bl	10608 <fgets@plt+0x4>
   10e5e:	e683      	b.n	10b68 <delirium_aead+0x1a8>
   10e60:	f7ff fbde 	bl	10620 <memcpy@plt+0xc>
   10e64:	00022f08 	andeq	r2, r2, r8, lsl #30

00010e68 <delirium_encrypt>:
   10e68:	b510      	push	{r4, lr}
   10e6a:	b08a      	sub	sp, #40	; 0x28
   10e6c:	e9dd 340c 	ldrd	r3, r4, [sp, #48]	; 0x30
   10e70:	e9cd 3400 	strd	r3, r4, [sp]
   10e74:	2301      	movs	r3, #1
   10e76:	9309      	str	r3, [sp, #36]	; 0x24
   10e78:	9b12      	ldr	r3, [sp, #72]	; 0x48
   10e7a:	9c0e      	ldr	r4, [sp, #56]	; 0x38
   10e7c:	9306      	str	r3, [sp, #24]
   10e7e:	9b13      	ldr	r3, [sp, #76]	; 0x4c
   10e80:	9402      	str	r4, [sp, #8]
   10e82:	9307      	str	r3, [sp, #28]
   10e84:	9b14      	ldr	r3, [sp, #80]	; 0x50
   10e86:	9308      	str	r3, [sp, #32]
   10e88:	e9dd 3410 	ldrd	r3, r4, [sp, #64]	; 0x40
   10e8c:	e9cd 3404 	strd	r3, r4, [sp, #16]
   10e90:	f7ff fd96 	bl	109c0 <delirium_aead>
   10e94:	2000      	movs	r0, #0
   10e96:	b00a      	add	sp, #40	; 0x28
   10e98:	bd10      	pop	{r4, pc}
   10e9a:	bf00      	nop

00010e9c <delirium_decrypt>:
   10e9c:	e92d 4810 	stmdb	sp!, {r4, fp, lr}
   10ea0:	b091      	sub	sp, #68	; 0x44
   10ea2:	e9dd 3414 	ldrd	r3, r4, [sp, #80]	; 0x50
   10ea6:	e9cd 3400 	strd	r3, r4, [sp]
   10eaa:	e9dd bc18 	ldrd	fp, ip, [sp, #96]	; 0x60
   10eae:	4b15      	ldr	r3, [pc, #84]	; (10f04 <delirium_decrypt+0x68>)
   10eb0:	9c16      	ldr	r4, [sp, #88]	; 0x58
   10eb2:	681b      	ldr	r3, [r3, #0]
   10eb4:	930f      	str	r3, [sp, #60]	; 0x3c
   10eb6:	f04f 0300 	mov.w	r3, #0
   10eba:	2300      	movs	r3, #0
   10ebc:	9402      	str	r4, [sp, #8]
   10ebe:	460c      	mov	r4, r1
   10ec0:	9309      	str	r3, [sp, #36]	; 0x24
   10ec2:	9b1a      	ldr	r3, [sp, #104]	; 0x68
   10ec4:	e9cd bc04 	strd	fp, ip, [sp, #16]
   10ec8:	9306      	str	r3, [sp, #24]
   10eca:	9b1b      	ldr	r3, [sp, #108]	; 0x6c
   10ecc:	a90b      	add	r1, sp, #44	; 0x2c
   10ece:	9307      	str	r3, [sp, #28]
   10ed0:	9b1c      	ldr	r3, [sp, #112]	; 0x70
   10ed2:	9308      	str	r3, [sp, #32]
   10ed4:	f7ff fd74 	bl	109c0 <delirium_aead>
   10ed8:	2210      	movs	r2, #16
   10eda:	4620      	mov	r0, r4
   10edc:	a90b      	add	r1, sp, #44	; 0x2c
   10ede:	f7ff fb99 	bl	10614 <memcpy@plt>
   10ee2:	4b08      	ldr	r3, [pc, #32]	; (10f04 <delirium_decrypt+0x68>)
   10ee4:	3800      	subs	r0, #0
   10ee6:	bf18      	it	ne
   10ee8:	2001      	movne	r0, #1
   10eea:	681a      	ldr	r2, [r3, #0]
   10eec:	9b0f      	ldr	r3, [sp, #60]	; 0x3c
   10eee:	405a      	eors	r2, r3
   10ef0:	f04f 0300 	mov.w	r3, #0
   10ef4:	d103      	bne.n	10efe <delirium_decrypt+0x62>
   10ef6:	4240      	negs	r0, r0
   10ef8:	b011      	add	sp, #68	; 0x44
   10efa:	e8bd 8810 	ldmia.w	sp!, {r4, fp, pc}
   10efe:	f7ff fb8f 	bl	10620 <memcpy@plt+0xc>
   10f02:	bf00      	nop
   10f04:	00022f08 	andeq	r2, r2, r8, lsl #30

00010f08 <fromHex>:
   10f08:	b570      	push	{r4, r5, r6, lr}
   10f0a:	4b11      	ldr	r3, [pc, #68]	; (10f50 <fromHex+0x48>)
   10f0c:	b082      	sub	sp, #8
   10f0e:	681b      	ldr	r3, [r3, #0]
   10f10:	9301      	str	r3, [sp, #4]
   10f12:	f04f 0300 	mov.w	r3, #0
   10f16:	4605      	mov	r5, r0
   10f18:	460c      	mov	r4, r1
   10f1a:	4e0e      	ldr	r6, [pc, #56]	; (10f54 <fromHex+0x4c>)
   10f1c:	e003      	b.n	10f26 <fromHex+0x1e>
   10f1e:	9b00      	ldr	r3, [sp, #0]
   10f20:	3402      	adds	r4, #2
   10f22:	f805 3b01 	strb.w	r3, [r5], #1
   10f26:	466a      	mov	r2, sp
   10f28:	4631      	mov	r1, r6
   10f2a:	4620      	mov	r0, r4
   10f2c:	f7ff fb9c 	bl	10668 <clock@plt+0x4>
   10f30:	2801      	cmp	r0, #1
   10f32:	d0f4      	beq.n	10f1e <fromHex+0x16>
   10f34:	2300      	movs	r3, #0
   10f36:	702b      	strb	r3, [r5, #0]
   10f38:	4b05      	ldr	r3, [pc, #20]	; (10f50 <fromHex+0x48>)
   10f3a:	681a      	ldr	r2, [r3, #0]
   10f3c:	9b01      	ldr	r3, [sp, #4]
   10f3e:	405a      	eors	r2, r3
   10f40:	f04f 0300 	mov.w	r3, #0
   10f44:	d101      	bne.n	10f4a <fromHex+0x42>
   10f46:	b002      	add	sp, #8
   10f48:	bd70      	pop	{r4, r5, r6, pc}
   10f4a:	f7ff fb69 	bl	10620 <memcpy@plt+0xc>
   10f4e:	bf00      	nop
   10f50:	00022f08 	andeq	r2, r2, r8, lsl #30
   10f54:	00012130 	andeq	r2, r1, r0, lsr r1

00010f58 <getData>:
   10f58:	e92d 41f0 	stmdb	sp!, {r4, r5, r6, r7, r8, lr}
   10f5c:	460f      	mov	r7, r1
   10f5e:	4690      	mov	r8, r2
   10f60:	4a1c      	ldr	r2, [pc, #112]	; (10fd4 <getData+0x7c>)
   10f62:	b082      	sub	sp, #8
   10f64:	21e8      	movs	r1, #232	; 0xe8
   10f66:	6812      	ldr	r2, [r2, #0]
   10f68:	9201      	str	r2, [sp, #4]
   10f6a:	f04f 0200 	mov.w	r2, #0
   10f6e:	4605      	mov	r5, r0
   10f70:	461a      	mov	r2, r3
   10f72:	4638      	mov	r0, r7
   10f74:	f7ff fb42 	bl	105fc <fopen@plt+0x8>
   10f78:	4638      	mov	r0, r7
   10f7a:	4917      	ldr	r1, [pc, #92]	; (10fd8 <getData+0x80>)
   10f7c:	f7ff fb32 	bl	105e4 <strcspn@plt>
   10f80:	1c84      	adds	r4, r0, #2
   10f82:	4e16      	ldr	r6, [pc, #88]	; (10fdc <getData+0x84>)
   10f84:	443c      	add	r4, r7
   10f86:	e003      	b.n	10f90 <getData+0x38>
   10f88:	9b00      	ldr	r3, [sp, #0]
   10f8a:	3402      	adds	r4, #2
   10f8c:	f805 3b01 	strb.w	r3, [r5], #1
   10f90:	466a      	mov	r2, sp
   10f92:	4631      	mov	r1, r6
   10f94:	4620      	mov	r0, r4
   10f96:	f7ff fb67 	bl	10668 <clock@plt+0x4>
   10f9a:	2801      	cmp	r0, #1
   10f9c:	d0f4      	beq.n	10f88 <getData+0x30>
   10f9e:	2300      	movs	r3, #0
   10fa0:	4638      	mov	r0, r7
   10fa2:	702b      	strb	r3, [r5, #0]
   10fa4:	f7ff fb5a 	bl	1065c <__gmon_start__@plt+0x8>
   10fa8:	490b      	ldr	r1, [pc, #44]	; (10fd8 <getData+0x80>)
   10faa:	4604      	mov	r4, r0
   10fac:	4638      	mov	r0, r7
   10fae:	f7ff fb19 	bl	105e4 <strcspn@plt>
   10fb2:	1a24      	subs	r4, r4, r0
   10fb4:	0864      	lsrs	r4, r4, #1
   10fb6:	4b07      	ldr	r3, [pc, #28]	; (10fd4 <getData+0x7c>)
   10fb8:	3c01      	subs	r4, #1
   10fba:	f8c8 4000 	str.w	r4, [r8]
   10fbe:	681a      	ldr	r2, [r3, #0]
   10fc0:	9b01      	ldr	r3, [sp, #4]
   10fc2:	405a      	eors	r2, r3
   10fc4:	f04f 0300 	mov.w	r3, #0
   10fc8:	d102      	bne.n	10fd0 <getData+0x78>
   10fca:	b002      	add	sp, #8
   10fcc:	e8bd 81f0 	ldmia.w	sp!, {r4, r5, r6, r7, r8, pc}
   10fd0:	f7ff fb26 	bl	10620 <memcpy@plt+0xc>
   10fd4:	00022f08 	andeq	r2, r2, r8, lsl #30
   10fd8:	00012134 	andeq	r2, r1, r4, lsr r1
   10fdc:	00012130 	andeq	r2, r1, r0, lsr r1

00010fe0 <writeData>:
   10fe0:	e92d 47f0 	stmdb	sp!, {r4, r5, r6, r7, r8, r9, sl, lr}
   10fe4:	e9dd 890a 	ldrd	r8, r9, [sp, #40]	; 0x28
   10fe8:	4605      	mov	r5, r0
   10fea:	460e      	mov	r6, r1
   10fec:	e9dd 010c 	ldrd	r0, r1, [sp, #48]	; 0x30
   10ff0:	4614      	mov	r4, r2
   10ff2:	a30f      	add	r3, pc, #60	; (adr r3, 11030 <writeData+0x50>)
   10ff4:	e9d3 2300 	ldrd	r2, r3, [r3]
   10ff8:	f000 fe14 	bl	11c24 <__aeabi_dmul>
   10ffc:	a30c      	add	r3, pc, #48	; (adr r3, 11030 <writeData+0x50>)
   10ffe:	e9d3 2300 	ldrd	r2, r3, [r3]
   11002:	e9cd 010c 	strd	r0, r1, [sp, #48]	; 0x30
   11006:	4640      	mov	r0, r8
   11008:	4649      	mov	r1, r9
   1100a:	f000 fe0b 	bl	11c24 <__aeabi_dmul>
   1100e:	4680      	mov	r8, r0
   11010:	4689      	mov	r9, r1
   11012:	9f08      	ldr	r7, [sp, #32]
   11014:	4633      	mov	r3, r6
   11016:	4628      	mov	r0, r5
   11018:	e9cd 890a 	strd	r8, r9, [sp, #40]	; 0x28
   1101c:	9709      	str	r7, [sp, #36]	; 0x24
   1101e:	9408      	str	r4, [sp, #32]
   11020:	2101      	movs	r1, #1
   11022:	e8bd 47f0 	ldmia.w	sp!, {r4, r5, r6, r7, r8, r9, sl, lr}
   11026:	4a04      	ldr	r2, [pc, #16]	; (11038 <writeData+0x58>)
   11028:	f7ff bb30 	b.w	1068c <strlen@plt+0x8>
   1102c:	f3af 8000 	nop.w
   11030:	00000000 	andeq	r0, r0, r0
   11034:	412e8480 	smlawbmi	lr, r0, r4, r8
   11038:	00012138 	andeq	r2, r1, r8, lsr r1

0001103c <runTests>:
   1103c:	e92d 4ff0 	stmdb	sp!, {r4, r5, r6, r7, r8, r9, sl, fp, lr}
   11040:	461d      	mov	r5, r3
   11042:	4607      	mov	r7, r0
   11044:	460e      	mov	r6, r1
   11046:	49c0      	ldr	r1, [pc, #768]	; (11348 <runTests+0x30c>)
   11048:	f5ad 7d13 	sub.w	sp, sp, #588	; 0x24c
   1104c:	6809      	ldr	r1, [r1, #0]
   1104e:	9191      	str	r1, [sp, #580]	; 0x244
   11050:	f04f 0100 	mov.w	r1, #0
   11054:	4614      	mov	r4, r2
   11056:	49bd      	ldr	r1, [pc, #756]	; (1134c <runTests+0x310>)
   11058:	4abd      	ldr	r2, [pc, #756]	; (11350 <runTests+0x314>)
   1105a:	2001      	movs	r0, #1
   1105c:	9711      	str	r7, [sp, #68]	; 0x44
   1105e:	f7ff fb0f 	bl	10680 <exit@plt+0xc>
   11062:	4628      	mov	r0, r5
   11064:	49bb      	ldr	r1, [pc, #748]	; (11354 <runTests+0x318>)
   11066:	f7ff fac3 	bl	105f0 <strcspn@plt+0xc>
   1106a:	9012      	str	r0, [sp, #72]	; 0x48
   1106c:	2800      	cmp	r0, #0
   1106e:	f000 8196 	beq.w	1139e <runTests+0x362>
   11072:	9d12      	ldr	r5, [sp, #72]	; 0x48
   11074:	2242      	movs	r2, #66	; 0x42
   11076:	462b      	mov	r3, r5
   11078:	2101      	movs	r1, #1
   1107a:	48b7      	ldr	r0, [pc, #732]	; (11358 <runTests+0x31c>)
   1107c:	f7ff fad6 	bl	1062c <memcmp@plt+0x8>
   11080:	462b      	mov	r3, r5
   11082:	22bb      	movs	r2, #187	; 0xbb
   11084:	2101      	movs	r1, #1
   11086:	48b5      	ldr	r0, [pc, #724]	; (1135c <runTests+0x320>)
   11088:	f7ff fad0 	bl	1062c <memcmp@plt+0x8>
   1108c:	4620      	mov	r0, r4
   1108e:	49b4      	ldr	r1, [pc, #720]	; (11360 <runTests+0x324>)
   11090:	f7ff faae 	bl	105f0 <strcspn@plt+0xc>
   11094:	4683      	mov	fp, r0
   11096:	2800      	cmp	r0, #0
   11098:	f000 8181 	beq.w	1139e <runTests+0x362>
   1109c:	9b11      	ldr	r3, [sp, #68]	; 0x44
   1109e:	2b00      	cmp	r3, #0
   110a0:	f340 8170 	ble.w	11384 <runTests+0x348>
   110a4:	2301      	movs	r3, #1
   110a6:	930b      	str	r3, [sp, #44]	; 0x2c
   110a8:	2300      	movs	r3, #0
   110aa:	2400      	movs	r4, #0
   110ac:	9313      	str	r3, [sp, #76]	; 0x4c
   110ae:	2300      	movs	r3, #0
   110b0:	46b2      	mov	sl, r6
   110b2:	e9cd 340e 	strd	r3, r4, [sp, #56]	; 0x38
   110b6:	e9cd 340c 	strd	r3, r4, [sp, #48]	; 0x30
   110ba:	465a      	mov	r2, fp
   110bc:	21e8      	movs	r1, #232	; 0xe8
   110be:	a857      	add	r0, sp, #348	; 0x15c
   110c0:	f7ff fa9c 	bl	105fc <fopen@plt+0x8>
   110c4:	465b      	mov	r3, fp
   110c6:	aa15      	add	r2, sp, #84	; 0x54
   110c8:	a957      	add	r1, sp, #348	; 0x15c
   110ca:	a81e      	add	r0, sp, #120	; 0x78
   110cc:	f7ff ff44 	bl	10f58 <getData>
   110d0:	465b      	mov	r3, fp
   110d2:	aa15      	add	r2, sp, #84	; 0x54
   110d4:	a957      	add	r1, sp, #348	; 0x15c
   110d6:	a816      	add	r0, sp, #88	; 0x58
   110d8:	f7ff ff3e 	bl	10f58 <getData>
   110dc:	465b      	mov	r3, fp
   110de:	aa15      	add	r2, sp, #84	; 0x54
   110e0:	a957      	add	r1, sp, #348	; 0x15c
   110e2:	a823      	add	r0, sp, #140	; 0x8c
   110e4:	f7ff ff38 	bl	10f58 <getData>
   110e8:	465b      	mov	r3, fp
   110ea:	aa15      	add	r2, sp, #84	; 0x54
   110ec:	a957      	add	r1, sp, #348	; 0x15c
   110ee:	a835      	add	r0, sp, #212	; 0xd4
   110f0:	9c15      	ldr	r4, [sp, #84]	; 0x54
   110f2:	f7ff ff31 	bl	10f58 <getData>
   110f6:	465b      	mov	r3, fp
   110f8:	aa15      	add	r2, sp, #84	; 0x54
   110fa:	a957      	add	r1, sp, #348	; 0x15c
   110fc:	a82c      	add	r0, sp, #176	; 0xb0
   110fe:	9d15      	ldr	r5, [sp, #84]	; 0x54
   11100:	f7ff ff2a 	bl	10f58 <getData>
   11104:	f7ff fa9e 	bl	10644 <fwrite@plt>
   11108:	f1ba 0f00 	cmp.w	sl, #0
   1110c:	ea4f 77e4 	mov.w	r7, r4, asr #31
   11110:	ea4f 76e5 	mov.w	r6, r5, asr #31
   11114:	9010      	str	r0, [sp, #64]	; 0x40
   11116:	dd18      	ble.n	1114a <runTests+0x10e>
   11118:	f04f 0900 	mov.w	r9, #0
   1111c:	46c8      	mov	r8, r9
   1111e:	2301      	movs	r3, #1
   11120:	9309      	str	r3, [sp, #36]	; 0x24
   11122:	ab1e      	add	r3, sp, #120	; 0x78
   11124:	9308      	str	r3, [sp, #32]
   11126:	ab16      	add	r3, sp, #88	; 0x58
   11128:	e9cd 8306 	strd	r8, r3, [sp, #24]
   1112c:	ab35      	add	r3, sp, #212	; 0xd4
   1112e:	e9cd 5604 	strd	r5, r6, [sp, #16]
   11132:	e9cd 4700 	strd	r4, r7, [sp]
   11136:	9302      	str	r3, [sp, #8]
   11138:	f109 0901 	add.w	r9, r9, #1
   1113c:	aa23      	add	r2, sp, #140	; 0x8c
   1113e:	a91a      	add	r1, sp, #104	; 0x68
   11140:	a84a      	add	r0, sp, #296	; 0x128
   11142:	f7ff fc3d 	bl	109c0 <delirium_aead>
   11146:	45ca      	cmp	sl, r9
   11148:	d1e9      	bne.n	1111e <runTests+0xe2>
   1114a:	f7ff fa7b 	bl	10644 <fwrite@plt>
   1114e:	f10d 0cf8 	add.w	ip, sp, #248	; 0xf8
   11152:	f50d 7e94 	add.w	lr, sp, #296	; 0x128
   11156:	4680      	mov	r8, r0
   11158:	e8be 000f 	ldmia.w	lr!, {r0, r1, r2, r3}
   1115c:	e8ac 000f 	stmia.w	ip!, {r0, r1, r2, r3}
   11160:	e89e 000f 	ldmia.w	lr, {r0, r1, r2, r3}
   11164:	f10d 0968 	add.w	r9, sp, #104	; 0x68
   11168:	e88c 000f 	stmia.w	ip, {r0, r1, r2, r3}
   1116c:	e8b9 000f 	ldmia.w	r9!, {r0, r1, r2, r3}
   11170:	f10d 0cf8 	add.w	ip, sp, #248	; 0xf8
   11174:	f84c 0004 	str.w	r0, [ip, r4]
   11178:	4660      	mov	r0, ip
   1117a:	4420      	add	r0, r4
   1117c:	6041      	str	r1, [r0, #4]
   1117e:	6082      	str	r2, [r0, #8]
   11180:	60c3      	str	r3, [r0, #12]
   11182:	4661      	mov	r1, ip
   11184:	a82c      	add	r0, sp, #176	; 0xb0
   11186:	f104 0210 	add.w	r2, r4, #16
   1118a:	f7ff fa43 	bl	10614 <memcpy@plt>
   1118e:	2800      	cmp	r0, #0
   11190:	f040 80cb 	bne.w	1132a <runTests+0x2ee>
   11194:	2001      	movs	r0, #1
   11196:	9a0b      	ldr	r2, [sp, #44]	; 0x2c
   11198:	4972      	ldr	r1, [pc, #456]	; (11364 <runTests+0x328>)
   1119a:	f7ff fa71 	bl	10680 <exit@plt+0xc>
   1119e:	4640      	mov	r0, r8
   111a0:	f000 fcce 	bl	11b40 <__aeabi_i2d>
   111a4:	4680      	mov	r8, r0
   111a6:	9810      	ldr	r0, [sp, #64]	; 0x40
   111a8:	4689      	mov	r9, r1
   111aa:	f000 fcc9 	bl	11b40 <__aeabi_i2d>
   111ae:	4602      	mov	r2, r0
   111b0:	460b      	mov	r3, r1
   111b2:	4640      	mov	r0, r8
   111b4:	4649      	mov	r1, r9
   111b6:	f000 fb59 	bl	1186c <__aeabi_dsub>
   111ba:	a361      	add	r3, pc, #388	; (adr r3, 11340 <runTests+0x304>)
   111bc:	e9d3 2300 	ldrd	r2, r3, [r3]
   111c0:	f000 fe66 	bl	11e90 <__aeabi_ddiv>
   111c4:	4680      	mov	r8, r0
   111c6:	4650      	mov	r0, sl
   111c8:	4689      	mov	r9, r1
   111ca:	f000 fcb9 	bl	11b40 <__aeabi_i2d>
   111ce:	4602      	mov	r2, r0
   111d0:	460b      	mov	r3, r1
   111d2:	4640      	mov	r0, r8
   111d4:	4649      	mov	r1, r9
   111d6:	f000 fe5b 	bl	11e90 <__aeabi_ddiv>
   111da:	4602      	mov	r2, r0
   111dc:	460b      	mov	r3, r1
   111de:	1960      	adds	r0, r4, r5
   111e0:	eb47 0106 	adc.w	r1, r7, r6
   111e4:	4616      	mov	r6, r2
   111e6:	461f      	mov	r7, r3
   111e8:	f000 fce2 	bl	11bb0 <__aeabi_ul2d>
   111ec:	4602      	mov	r2, r0
   111ee:	460b      	mov	r3, r1
   111f0:	4630      	mov	r0, r6
   111f2:	4639      	mov	r1, r7
   111f4:	f000 fe4c 	bl	11e90 <__aeabi_ddiv>
   111f8:	a351      	add	r3, pc, #324	; (adr r3, 11340 <runTests+0x304>)
   111fa:	e9d3 2300 	ldrd	r2, r3, [r3]
   111fe:	4680      	mov	r8, r0
   11200:	4689      	mov	r9, r1
   11202:	f000 fd0f 	bl	11c24 <__aeabi_dmul>
   11206:	a34e      	add	r3, pc, #312	; (adr r3, 11340 <runTests+0x304>)
   11208:	e9d3 2300 	ldrd	r2, r3, [r3]
   1120c:	e9cd 0104 	strd	r0, r1, [sp, #16]
   11210:	4630      	mov	r0, r6
   11212:	4639      	mov	r1, r7
   11214:	f000 fd06 	bl	11c24 <__aeabi_dmul>
   11218:	9b0b      	ldr	r3, [sp, #44]	; 0x2c
   1121a:	e9cd 4500 	strd	r4, r5, [sp]
   1121e:	461a      	mov	r2, r3
   11220:	3201      	adds	r2, #1
   11222:	e9cd 0102 	strd	r0, r1, [sp, #8]
   11226:	920b      	str	r2, [sp, #44]	; 0x2c
   11228:	2101      	movs	r1, #1
   1122a:	4a4f      	ldr	r2, [pc, #316]	; (11368 <runTests+0x32c>)
   1122c:	9812      	ldr	r0, [sp, #72]	; 0x48
   1122e:	f7ff fa2d 	bl	1068c <strlen@plt+0x8>
   11232:	e9dd 010c 	ldrd	r0, r1, [sp, #48]	; 0x30
   11236:	4632      	mov	r2, r6
   11238:	463b      	mov	r3, r7
   1123a:	f000 fb19 	bl	11870 <__adddf3>
   1123e:	4604      	mov	r4, r0
   11240:	460d      	mov	r5, r1
   11242:	e9dd 010e 	ldrd	r0, r1, [sp, #56]	; 0x38
   11246:	464b      	mov	r3, r9
   11248:	4642      	mov	r2, r8
   1124a:	e9cd 450c 	strd	r4, r5, [sp, #48]	; 0x30
   1124e:	f000 fb0f 	bl	11870 <__adddf3>
   11252:	4604      	mov	r4, r0
   11254:	460d      	mov	r5, r1
   11256:	465a      	mov	r2, fp
   11258:	21e8      	movs	r1, #232	; 0xe8
   1125a:	a857      	add	r0, sp, #348	; 0x15c
   1125c:	e9cd 450e 	strd	r4, r5, [sp, #56]	; 0x38
   11260:	f7ff f9cc 	bl	105fc <fopen@plt+0x8>
   11264:	9b11      	ldr	r3, [sp, #68]	; 0x44
   11266:	9a0b      	ldr	r2, [sp, #44]	; 0x2c
   11268:	4293      	cmp	r3, r2
   1126a:	f6bf af26 	bge.w	110ba <runTests+0x7e>
   1126e:	9a13      	ldr	r2, [sp, #76]	; 0x4c
   11270:	eba3 0802 	sub.w	r8, r3, r2
   11274:	4658      	mov	r0, fp
   11276:	f7ff fa0f 	bl	10698 <__isoc99_sscanf@plt+0x4>
   1127a:	4642      	mov	r2, r8
   1127c:	9b13      	ldr	r3, [sp, #76]	; 0x4c
   1127e:	493b      	ldr	r1, [pc, #236]	; (1136c <runTests+0x330>)
   11280:	2001      	movs	r0, #1
   11282:	f7ff f9fd 	bl	10680 <exit@plt+0xc>
   11286:	f8dd a044 	ldr.w	sl, [sp, #68]	; 0x44
   1128a:	4650      	mov	r0, sl
   1128c:	f000 fc58 	bl	11b40 <__aeabi_i2d>
   11290:	4606      	mov	r6, r0
   11292:	460f      	mov	r7, r1
   11294:	e9dd 010c 	ldrd	r0, r1, [sp, #48]	; 0x30
   11298:	4632      	mov	r2, r6
   1129a:	463b      	mov	r3, r7
   1129c:	f000 fdf8 	bl	11e90 <__aeabi_ddiv>
   112a0:	a327      	add	r3, pc, #156	; (adr r3, 11340 <runTests+0x304>)
   112a2:	e9d3 2300 	ldrd	r2, r3, [r3]
   112a6:	f000 fcbd 	bl	11c24 <__aeabi_dmul>
   112aa:	4604      	mov	r4, r0
   112ac:	460d      	mov	r5, r1
   112ae:	4622      	mov	r2, r4
   112b0:	462b      	mov	r3, r5
   112b2:	492f      	ldr	r1, [pc, #188]	; (11370 <runTests+0x334>)
   112b4:	2001      	movs	r0, #1
   112b6:	f7ff f9e3 	bl	10680 <exit@plt+0xc>
   112ba:	f8dd 9048 	ldr.w	r9, [sp, #72]	; 0x48
   112be:	22bc      	movs	r2, #188	; 0xbc
   112c0:	464b      	mov	r3, r9
   112c2:	2101      	movs	r1, #1
   112c4:	482b      	ldr	r0, [pc, #172]	; (11374 <runTests+0x338>)
   112c6:	f7ff f9b1 	bl	1062c <memcmp@plt+0x8>
   112ca:	e9dd 010e 	ldrd	r0, r1, [sp, #56]	; 0x38
   112ce:	4632      	mov	r2, r6
   112d0:	463b      	mov	r3, r7
   112d2:	f000 fddd 	bl	11e90 <__aeabi_ddiv>
   112d6:	a31a      	add	r3, pc, #104	; (adr r3, 11340 <runTests+0x304>)
   112d8:	e9d3 2300 	ldrd	r2, r3, [r3]
   112dc:	f000 fca2 	bl	11c24 <__aeabi_dmul>
   112e0:	4a25      	ldr	r2, [pc, #148]	; (11378 <runTests+0x33c>)
   112e2:	e9cd 0102 	strd	r0, r1, [sp, #8]
   112e6:	e9cd 4500 	strd	r4, r5, [sp]
   112ea:	2101      	movs	r1, #1
   112ec:	4648      	mov	r0, r9
   112ee:	f7ff f9cd 	bl	1068c <strlen@plt+0x8>
   112f2:	2101      	movs	r1, #1
   112f4:	4643      	mov	r3, r8
   112f6:	4a21      	ldr	r2, [pc, #132]	; (1137c <runTests+0x340>)
   112f8:	4648      	mov	r0, r9
   112fa:	f8cd a000 	str.w	sl, [sp]
   112fe:	f7ff f9c5 	bl	1068c <strlen@plt+0x8>
   11302:	464b      	mov	r3, r9
   11304:	221c      	movs	r2, #28
   11306:	2101      	movs	r1, #1
   11308:	4811      	ldr	r0, [pc, #68]	; (11350 <runTests+0x314>)
   1130a:	f7ff f98f 	bl	1062c <memcmp@plt+0x8>
   1130e:	4648      	mov	r0, r9
   11310:	f7ff f9c2 	bl	10698 <__isoc99_sscanf@plt+0x4>
   11314:	4b0c      	ldr	r3, [pc, #48]	; (11348 <runTests+0x30c>)
   11316:	681a      	ldr	r2, [r3, #0]
   11318:	9b91      	ldr	r3, [sp, #580]	; 0x244
   1131a:	405a      	eors	r2, r3
   1131c:	f04f 0300 	mov.w	r3, #0
   11320:	d13b      	bne.n	1139a <runTests+0x35e>
   11322:	f50d 7d13 	add.w	sp, sp, #588	; 0x24c
   11326:	e8bd 8ff0 	ldmia.w	sp!, {r4, r5, r6, r7, r8, r9, sl, fp, pc}
   1132a:	9b13      	ldr	r3, [sp, #76]	; 0x4c
   1132c:	9a0b      	ldr	r2, [sp, #44]	; 0x2c
   1132e:	3301      	adds	r3, #1
   11330:	4913      	ldr	r1, [pc, #76]	; (11380 <runTests+0x344>)
   11332:	2001      	movs	r0, #1
   11334:	9313      	str	r3, [sp, #76]	; 0x4c
   11336:	f7ff f9a3 	bl	10680 <exit@plt+0xc>
   1133a:	e730      	b.n	1119e <runTests+0x162>
   1133c:	f3af 8000 	nop.w
   11340:	00000000 	andeq	r0, r0, r0
   11344:	412e8480 	smlawbmi	lr, r0, r4, r8
   11348:	00022f08 	andeq	r2, r2, r8, lsl #30
   1134c:	00012180 	andeq	r2, r1, r0, lsl #3
   11350:	00012160 	andeq	r2, r1, r0, ror #2
   11354:	00012198 	muleq	r1, r8, r1
   11358:	0001219c 	muleq	r1, ip, r1
   1135c:	000121e0 	andeq	r2, r1, r0, ror #3
   11360:	0001229c 	muleq	r1, ip, r2
   11364:	000122a0 	andeq	r2, r1, r0, lsr #5
   11368:	00012138 	andeq	r2, r1, r8, lsr r1
   1136c:	000122c0 	andeq	r2, r1, r0, asr #5
   11370:	000122fc 	strdeq	r2, [r1], -ip
   11374:	00012328 	andeq	r2, r1, r8, lsr #6
   11378:	000123e8 	andeq	r2, r1, r8, ror #7
   1137c:	00012430 	andeq	r2, r1, r0, lsr r4
   11380:	000122b0 			; <UNDEFINED> instruction: 0x000122b0
   11384:	2300      	movs	r3, #0
   11386:	2400      	movs	r4, #0
   11388:	9313      	str	r3, [sp, #76]	; 0x4c
   1138a:	2300      	movs	r3, #0
   1138c:	f8dd 8044 	ldr.w	r8, [sp, #68]	; 0x44
   11390:	e9cd 340e 	strd	r3, r4, [sp, #56]	; 0x38
   11394:	e9cd 340c 	strd	r3, r4, [sp, #48]	; 0x30
   11398:	e76c      	b.n	11274 <runTests+0x238>
   1139a:	f7ff f941 	bl	10620 <memcpy@plt+0xc>
   1139e:	2001      	movs	r0, #1
   113a0:	f7ff f956 	bl	10650 <fwrite@plt+0xc>

000113a4 <KeccakP200_Initialize>:
   113a4:	2300      	movs	r3, #0
   113a6:	6003      	str	r3, [r0, #0]
   113a8:	6043      	str	r3, [r0, #4]
   113aa:	6083      	str	r3, [r0, #8]
   113ac:	60c3      	str	r3, [r0, #12]
   113ae:	6103      	str	r3, [r0, #16]
   113b0:	6143      	str	r3, [r0, #20]
   113b2:	7603      	strb	r3, [r0, #24]
   113b4:	4770      	bx	lr
   113b6:	bf00      	nop

000113b8 <KeccakP200_AddByte>:
   113b8:	5c83      	ldrb	r3, [r0, r2]
   113ba:	4059      	eors	r1, r3
   113bc:	5481      	strb	r1, [r0, r2]
   113be:	4770      	bx	lr

000113c0 <KeccakP200_AddBytes>:
   113c0:	b1a3      	cbz	r3, 113ec <KeccakP200_AddBytes+0x2c>
   113c2:	f04f 0c00 	mov.w	ip, #0
   113c6:	b530      	push	{r4, r5, lr}
   113c8:	46e6      	mov	lr, ip
   113ca:	eb02 040e 	add.w	r4, r2, lr
   113ce:	5d05      	ldrb	r5, [r0, r4]
   113d0:	f811 e00e 	ldrb.w	lr, [r1, lr]
   113d4:	f10c 0c01 	add.w	ip, ip, #1
   113d8:	fa5f fc8c 	uxtb.w	ip, ip
   113dc:	ea8e 0e05 	eor.w	lr, lr, r5
   113e0:	459c      	cmp	ip, r3
   113e2:	f800 e004 	strb.w	lr, [r0, r4]
   113e6:	46e6      	mov	lr, ip
   113e8:	d3ef      	bcc.n	113ca <KeccakP200_AddBytes+0xa>
   113ea:	bd30      	pop	{r4, r5, pc}
   113ec:	4770      	bx	lr
   113ee:	bf00      	nop

000113f0 <KeccakP200_OverwriteBytes>:
   113f0:	4410      	add	r0, r2
   113f2:	461a      	mov	r2, r3
   113f4:	f7ff b908 	b.w	10608 <fgets@plt+0x4>

000113f8 <KeccakP200_OverwriteWithZeroes>:
   113f8:	460a      	mov	r2, r1
   113fa:	2100      	movs	r1, #0
   113fc:	f7ff b93a 	b.w	10674 <exit@plt>

00011400 <KeccakP200_Permute_Nrounds>:
   11400:	e92d 4ff0 	stmdb	sp!, {r4, r5, r6, r7, r8, r9, sl, fp, lr}
   11404:	4b66      	ldr	r3, [pc, #408]	; (115a0 <KeccakP200_Permute_Nrounds+0x1a0>)
   11406:	4606      	mov	r6, r0
   11408:	b085      	sub	sp, #20
   1140a:	681b      	ldr	r3, [r3, #0]
   1140c:	9303      	str	r3, [sp, #12]
   1140e:	f04f 0300 	mov.w	r3, #0
   11412:	4f64      	ldr	r7, [pc, #400]	; (115a4 <KeccakP200_Permute_Nrounds+0x1a4>)
   11414:	f1c1 0112 	rsb	r1, r1, #18
   11418:	f816 2b04 	ldrb.w	r2, [r6], #4
   1141c:	f107 0537 	add.w	r5, r7, #55	; 0x37
   11420:	ac02      	add	r4, sp, #8
   11422:	440f      	add	r7, r1
   11424:	4686      	mov	lr, r0
   11426:	4684      	mov	ip, r0
   11428:	4690      	mov	r8, r2
   1142a:	a901      	add	r1, sp, #4
   1142c:	f89c 900a 	ldrb.w	r9, [ip, #10]
   11430:	f89c 3005 	ldrb.w	r3, [ip, #5]
   11434:	4566      	cmp	r6, ip
   11436:	ea83 0309 	eor.w	r3, r3, r9
   1143a:	f89c 900f 	ldrb.w	r9, [ip, #15]
   1143e:	ea83 0309 	eor.w	r3, r3, r9
   11442:	f89c 9014 	ldrb.w	r9, [ip, #20]
   11446:	ea83 0309 	eor.w	r3, r3, r9
   1144a:	ea88 0303 	eor.w	r3, r8, r3
   1144e:	f801 3b01 	strb.w	r3, [r1], #1
   11452:	d002      	beq.n	1145a <KeccakP200_Permute_Nrounds+0x5a>
   11454:	f81c 8f01 	ldrb.w	r8, [ip, #1]!
   11458:	e7e8      	b.n	1142c <KeccakP200_Permute_Nrounds+0x2c>
   1145a:	4682      	mov	sl, r0
   1145c:	f04f 0819 	mov.w	r8, #25
   11460:	f04f 0900 	mov.w	r9, #0
   11464:	2301      	movs	r3, #1
   11466:	2104      	movs	r1, #4
   11468:	f8df b13c 	ldr.w	fp, [pc, #316]	; 115a8 <KeccakP200_Permute_Nrounds+0x1a8>
   1146c:	3310      	adds	r3, #16
   1146e:	3110      	adds	r1, #16
   11470:	446b      	add	r3, sp
   11472:	4469      	add	r1, sp
   11474:	f813 3c0c 	ldrb.w	r3, [r3, #-12]
   11478:	f811 1c0c 	ldrb.w	r1, [r1, #-12]
   1147c:	ea81 11d3 	eor.w	r1, r1, r3, lsr #7
   11480:	ea81 0143 	eor.w	r1, r1, r3, lsl #1
   11484:	464b      	mov	r3, r9
   11486:	b2c9      	uxtb	r1, r1
   11488:	404a      	eors	r2, r1
   1148a:	54c2      	strb	r2, [r0, r3]
   1148c:	3305      	adds	r3, #5
   1148e:	4598      	cmp	r8, r3
   11490:	d005      	beq.n	1149e <KeccakP200_Permute_Nrounds+0x9e>
   11492:	5cc2      	ldrb	r2, [r0, r3]
   11494:	404a      	eors	r2, r1
   11496:	54c2      	strb	r2, [r0, r3]
   11498:	3305      	adds	r3, #5
   1149a:	4598      	cmp	r8, r3
   1149c:	d1f9      	bne.n	11492 <KeccakP200_Permute_Nrounds+0x92>
   1149e:	45d4      	cmp	ip, sl
   114a0:	f109 0901 	add.w	r9, r9, #1
   114a4:	f108 0801 	add.w	r8, r8, #1
   114a8:	d006      	beq.n	114b8 <KeccakP200_Permute_Nrounds+0xb8>
   114aa:	f89b 1004 	ldrb.w	r1, [fp, #4]
   114ae:	f81a 2f01 	ldrb.w	r2, [sl, #1]!
   114b2:	f81b 3f01 	ldrb.w	r3, [fp, #1]!
   114b6:	e7d9      	b.n	1146c <KeccakP200_Permute_Nrounds+0x6c>
   114b8:	493c      	ldr	r1, [pc, #240]	; (115ac <KeccakP200_Permute_Nrounds+0x1ac>)
   114ba:	2301      	movs	r3, #1
   114bc:	f04f 0c0a 	mov.w	ip, #10
   114c0:	f890 a001 	ldrb.w	sl, [r0, #1]
   114c4:	f101 081c 	add.w	r8, r1, #28
   114c8:	e004      	b.n	114d4 <KeccakP200_Permute_Nrounds+0xd4>
   114ca:	46ca      	mov	sl, r9
   114cc:	f811 cf01 	ldrb.w	ip, [r1, #1]!
   114d0:	f818 3f01 	ldrb.w	r3, [r8, #1]!
   114d4:	f003 0307 	and.w	r3, r3, #7
   114d8:	425a      	negs	r2, r3
   114da:	f002 0207 	and.w	r2, r2, #7
   114de:	fa0a f303 	lsl.w	r3, sl, r3
   114e2:	fa2a f202 	lsr.w	r2, sl, r2
   114e6:	4313      	orrs	r3, r2
   114e8:	428d      	cmp	r5, r1
   114ea:	f810 900c 	ldrb.w	r9, [r0, ip]
   114ee:	f800 300c 	strb.w	r3, [r0, ip]
   114f2:	d1ea      	bne.n	114ca <KeccakP200_Permute_Nrounds+0xca>
   114f4:	f04f 0800 	mov.w	r8, #0
   114f8:	46f4      	mov	ip, lr
   114fa:	f89e a001 	ldrb.w	sl, [lr, #1]
   114fe:	f89e 3002 	ldrb.w	r3, [lr, #2]
   11502:	f89e 1003 	ldrb.w	r1, [lr, #3]
   11506:	f89e 9000 	ldrb.w	r9, [lr]
   1150a:	aa01      	add	r2, sp, #4
   1150c:	f88d 3006 	strb.w	r3, [sp, #6]
   11510:	f88d 1007 	strb.w	r1, [sp, #7]
   11514:	ea23 030a 	bic.w	r3, r3, sl
   11518:	f89e 1004 	ldrb.w	r1, [lr, #4]
   1151c:	ea89 0303 	eor.w	r3, r9, r3
   11520:	4294      	cmp	r4, r2
   11522:	f88d 1008 	strb.w	r1, [sp, #8]
   11526:	f88d 9004 	strb.w	r9, [sp, #4]
   1152a:	4921      	ldr	r1, [pc, #132]	; (115b0 <KeccakP200_Permute_Nrounds+0x1b0>)
   1152c:	f88d a005 	strb.w	sl, [sp, #5]
   11530:	f80c 3b01 	strb.w	r3, [ip], #1
   11534:	d017      	beq.n	11566 <KeccakP200_Permute_Nrounds+0x166>
   11536:	f891 a000 	ldrb.w	sl, [r1]
   1153a:	f811 3f01 	ldrb.w	r3, [r1, #1]!
   1153e:	f10a 0910 	add.w	r9, sl, #16
   11542:	3310      	adds	r3, #16
   11544:	eb0d 0a09 	add.w	sl, sp, r9
   11548:	446b      	add	r3, sp
   1154a:	f81a ac0c 	ldrb.w	sl, [sl, #-12]
   1154e:	f813 3c0c 	ldrb.w	r3, [r3, #-12]
   11552:	f812 9f01 	ldrb.w	r9, [r2, #1]!
   11556:	ea23 030a 	bic.w	r3, r3, sl
   1155a:	ea89 0303 	eor.w	r3, r9, r3
   1155e:	4294      	cmp	r4, r2
   11560:	f80c 3b01 	strb.w	r3, [ip], #1
   11564:	d1e7      	bne.n	11536 <KeccakP200_Permute_Nrounds+0x136>
   11566:	f108 0805 	add.w	r8, r8, #5
   1156a:	f1b8 0f19 	cmp.w	r8, #25
   1156e:	f10e 0e05 	add.w	lr, lr, #5
   11572:	d1c1      	bne.n	114f8 <KeccakP200_Permute_Nrounds+0xf8>
   11574:	f817 3b01 	ldrb.w	r3, [r7], #1
   11578:	7802      	ldrb	r2, [r0, #0]
   1157a:	2b80      	cmp	r3, #128	; 0x80
   1157c:	ea82 0203 	eor.w	r2, r2, r3
   11580:	7002      	strb	r2, [r0, #0]
   11582:	f47f af4f 	bne.w	11424 <KeccakP200_Permute_Nrounds+0x24>
   11586:	4b06      	ldr	r3, [pc, #24]	; (115a0 <KeccakP200_Permute_Nrounds+0x1a0>)
   11588:	681a      	ldr	r2, [r3, #0]
   1158a:	9b03      	ldr	r3, [sp, #12]
   1158c:	405a      	eors	r2, r3
   1158e:	f04f 0300 	mov.w	r3, #0
   11592:	d102      	bne.n	1159a <KeccakP200_Permute_Nrounds+0x19a>
   11594:	b005      	add	sp, #20
   11596:	e8bd 8ff0 	ldmia.w	sp!, {r4, r5, r6, r7, r8, r9, sl, fp, pc}
   1159a:	f7ff f841 	bl	10620 <memcpy@plt+0xc>
   1159e:	bf00      	nop
   115a0:	00022f08 	andeq	r2, r2, r8, lsl #30
   115a4:	00012484 	andeq	r2, r1, r4, lsl #9
   115a8:	00012499 	muleq	r1, r9, r4
   115ac:	000124a4 	andeq	r2, r1, r4, lsr #9
   115b0:	0001249a 	muleq	r1, sl, r4

000115b4 <KeccakP200_Permute_18rounds>:
   115b4:	2112      	movs	r1, #18
   115b6:	f7ff bf23 	b.w	11400 <KeccakP200_Permute_Nrounds>
   115ba:	bf00      	nop

000115bc <KeccakP200_ExtractBytes>:
   115bc:	4684      	mov	ip, r0
   115be:	4608      	mov	r0, r1
   115c0:	eb0c 0102 	add.w	r1, ip, r2
   115c4:	461a      	mov	r2, r3
   115c6:	f7ff b81f 	b.w	10608 <fgets@plt+0x4>
   115ca:	bf00      	nop

000115cc <KeccakP200_ExtractAndAddBytes>:
   115cc:	b510      	push	{r4, lr}
   115ce:	9c02      	ldr	r4, [sp, #8]
   115d0:	b18c      	cbz	r4, 115f6 <KeccakP200_ExtractAndAddBytes+0x2a>
   115d2:	eb01 0e04 	add.w	lr, r1, r4
   115d6:	3b01      	subs	r3, #1
   115d8:	4418      	add	r0, r3
   115da:	3901      	subs	r1, #1
   115dc:	3a01      	subs	r2, #1
   115de:	f10e 3eff 	add.w	lr, lr, #4294967295	; 0xffffffff
   115e2:	f811 3f01 	ldrb.w	r3, [r1, #1]!
   115e6:	f810 cf01 	ldrb.w	ip, [r0, #1]!
   115ea:	4571      	cmp	r1, lr
   115ec:	ea83 030c 	eor.w	r3, r3, ip
   115f0:	f802 3f01 	strb.w	r3, [r2, #1]!
   115f4:	d1f5      	bne.n	115e2 <KeccakP200_ExtractAndAddBytes+0x16>
   115f6:	bd10      	pop	{r4, pc}
   115f8:	e92d4070 	push	{r4, r5, r6, lr}
   115fc:	e3a0c0ff 	mov	ip, #255	; 0xff
   11600:	e38ccc07 	orr	ip, ip, #1792	; 0x700
   11604:	e01c4a21 	ands	r4, ip, r1, lsr #20
   11608:	101c5a23 	andsne	r5, ip, r3, lsr #20
   1160c:	1134000c 	teqne	r4, ip
   11610:	1135000c 	teqne	r5, ip
   11614:	0b00006f 	bleq	117d8 <KeccakP200_ExtractAndAddBytes+0x20c>
   11618:	e0844005 	add	r4, r4, r5
   1161c:	e0216003 	eor	r6, r1, r3
   11620:	e1c11a8c 	bic	r1, r1, ip, lsl #21
   11624:	e1c33a8c 	bic	r3, r3, ip, lsl #21
   11628:	e1905601 	orrs	r5, r0, r1, lsl #12
   1162c:	11925603 	orrsne	r5, r2, r3, lsl #12
   11630:	e3811601 	orr	r1, r1, #1048576	; 0x100000
   11634:	e3833601 	orr	r3, r3, #1048576	; 0x100000
   11638:	0a00001c 	beq	116b0 <KeccakP200_ExtractAndAddBytes+0xe4>
   1163c:	e08ec290 	umull	ip, lr, r0, r2
   11640:	e3a05000 	mov	r5, #0
   11644:	e0a5e291 	umlal	lr, r5, r1, r2
   11648:	e2062102 	and	r2, r6, #-2147483648	; 0x80000000
   1164c:	e0a5e390 	umlal	lr, r5, r0, r3
   11650:	e3a06000 	mov	r6, #0
   11654:	e0a65391 	umlal	r5, r6, r1, r3
   11658:	e33c0000 	teq	ip, #0
   1165c:	138ee001 	orrne	lr, lr, #1
   11660:	e24440ff 	sub	r4, r4, #255	; 0xff
   11664:	e3560c02 	cmp	r6, #512	; 0x200
   11668:	e2c44c03 	sbc	r4, r4, #768	; 0x300
   1166c:	2a000002 	bcs	1167c <KeccakP200_ExtractAndAddBytes+0xb0>
   11670:	e1b0e08e 	lsls	lr, lr, #1
   11674:	e0b55005 	adcs	r5, r5, r5
   11678:	e0a66006 	adc	r6, r6, r6
   1167c:	e1821586 	orr	r1, r2, r6, lsl #11
   11680:	e1811aa5 	orr	r1, r1, r5, lsr #21
   11684:	e1a00585 	lsl	r0, r5, #11
   11688:	e1800aae 	orr	r0, r0, lr, lsr #21
   1168c:	e1a0e58e 	lsl	lr, lr, #11
   11690:	e254c0fd 	subs	ip, r4, #253	; 0xfd
   11694:	835c0c07 	cmphi	ip, #1792	; 0x700
   11698:	8a00000f 	bhi	116dc <KeccakP200_ExtractAndAddBytes+0x110>
   1169c:	e35e0102 	cmp	lr, #-2147483648	; 0x80000000
   116a0:	01b0e0a0 	lsrseq	lr, r0, #1
   116a4:	e2b00000 	adcs	r0, r0, #0
   116a8:	e0a11a04 	adc	r1, r1, r4, lsl #20
   116ac:	e8bd8070 	pop	{r4, r5, r6, pc}
   116b0:	e2066102 	and	r6, r6, #-2147483648	; 0x80000000
   116b4:	e1861001 	orr	r1, r6, r1
   116b8:	e1800002 	orr	r0, r0, r2
   116bc:	e0211003 	eor	r1, r1, r3
   116c0:	e05440ac 	subs	r4, r4, ip, lsr #1
   116c4:	c074500c 	rsbsgt	r5, r4, ip
   116c8:	c1811a04 	orrgt	r1, r1, r4, lsl #20
   116cc:	c8bd8070 	popgt	{r4, r5, r6, pc}
   116d0:	e3811601 	orr	r1, r1, #1048576	; 0x100000
   116d4:	e3a0e000 	mov	lr, #0
   116d8:	e2544001 	subs	r4, r4, #1
   116dc:	ca000058 	bgt	11844 <KeccakP200_ExtractAndAddBytes+0x278>
   116e0:	e3740036 	cmn	r4, #54	; 0x36
   116e4:	d3a00000 	movle	r0, #0
   116e8:	d2011102 	andle	r1, r1, #-2147483648	; 0x80000000
   116ec:	d8bd8070 	pople	{r4, r5, r6, pc}
   116f0:	e2644000 	rsb	r4, r4, #0
   116f4:	e2544020 	subs	r4, r4, #32
   116f8:	aa000018 	bge	11760 <KeccakP200_ExtractAndAddBytes+0x194>
   116fc:	e294400c 	adds	r4, r4, #12
   11700:	ca00000b 	bgt	11734 <KeccakP200_ExtractAndAddBytes+0x168>
   11704:	e2844014 	add	r4, r4, #20
   11708:	e2645020 	rsb	r5, r4, #32
   1170c:	e1a03510 	lsl	r3, r0, r5
   11710:	e1a00430 	lsr	r0, r0, r4
   11714:	e1800511 	orr	r0, r0, r1, lsl r5
   11718:	e2012102 	and	r2, r1, #-2147483648	; 0x80000000
   1171c:	e3c11102 	bic	r1, r1, #-2147483648	; 0x80000000
   11720:	e0900fa3 	adds	r0, r0, r3, lsr #31
   11724:	e0a21431 	adc	r1, r2, r1, lsr r4
   11728:	e19ee083 	orrs	lr, lr, r3, lsl #1
   1172c:	01c00fa3 	biceq	r0, r0, r3, lsr #31
   11730:	e8bd8070 	pop	{r4, r5, r6, pc}
   11734:	e264400c 	rsb	r4, r4, #12
   11738:	e2645020 	rsb	r5, r4, #32
   1173c:	e1a03410 	lsl	r3, r0, r4
   11740:	e1a00530 	lsr	r0, r0, r5
   11744:	e1800411 	orr	r0, r0, r1, lsl r4
   11748:	e2011102 	and	r1, r1, #-2147483648	; 0x80000000
   1174c:	e0900fa3 	adds	r0, r0, r3, lsr #31
   11750:	e2a11000 	adc	r1, r1, #0
   11754:	e19ee083 	orrs	lr, lr, r3, lsl #1
   11758:	01c00fa3 	biceq	r0, r0, r3, lsr #31
   1175c:	e8bd8070 	pop	{r4, r5, r6, pc}
   11760:	e2645020 	rsb	r5, r4, #32
   11764:	e18ee510 	orr	lr, lr, r0, lsl r5
   11768:	e1a03430 	lsr	r3, r0, r4
   1176c:	e1833511 	orr	r3, r3, r1, lsl r5
   11770:	e1a00431 	lsr	r0, r1, r4
   11774:	e2011102 	and	r1, r1, #-2147483648	; 0x80000000
   11778:	e1c00431 	bic	r0, r0, r1, lsr r4
   1177c:	e0800fa3 	add	r0, r0, r3, lsr #31
   11780:	e19ee083 	orrs	lr, lr, r3, lsl #1
   11784:	01c00fa3 	biceq	r0, r0, r3, lsr #31
   11788:	e8bd8070 	pop	{r4, r5, r6, pc}
   1178c:	e3340000 	teq	r4, #0
   11790:	1a000008 	bne	117b8 <KeccakP200_ExtractAndAddBytes+0x1ec>
   11794:	e2016102 	and	r6, r1, #-2147483648	; 0x80000000
   11798:	e1b00080 	lsls	r0, r0, #1
   1179c:	e0a11001 	adc	r1, r1, r1
   117a0:	e3110601 	tst	r1, #1048576	; 0x100000
   117a4:	02444001 	subeq	r4, r4, #1
   117a8:	0afffffa 	beq	11798 <KeccakP200_ExtractAndAddBytes+0x1cc>
   117ac:	e1811006 	orr	r1, r1, r6
   117b0:	e3350000 	teq	r5, #0
   117b4:	112fff1e 	bxne	lr
   117b8:	e2036102 	and	r6, r3, #-2147483648	; 0x80000000
   117bc:	e1b02082 	lsls	r2, r2, #1
   117c0:	e0a33003 	adc	r3, r3, r3
   117c4:	e3130601 	tst	r3, #1048576	; 0x100000
   117c8:	02455001 	subeq	r5, r5, #1
   117cc:	0afffffa 	beq	117bc <KeccakP200_ExtractAndAddBytes+0x1f0>
   117d0:	e1833006 	orr	r3, r3, r6
   117d4:	e12fff1e 	bx	lr
   117d8:	e134000c 	teq	r4, ip
   117dc:	e00c5a23 	and	r5, ip, r3, lsr #20
   117e0:	1135000c 	teqne	r5, ip
   117e4:	0a000006 	beq	11804 <KeccakP200_ExtractAndAddBytes+0x238>
   117e8:	e1906081 	orrs	r6, r0, r1, lsl #1
   117ec:	11926083 	orrsne	r6, r2, r3, lsl #1
   117f0:	1affffe5 	bne	1178c <KeccakP200_ExtractAndAddBytes+0x1c0>
   117f4:	e0211003 	eor	r1, r1, r3
   117f8:	e2011102 	and	r1, r1, #-2147483648	; 0x80000000
   117fc:	e3a00000 	mov	r0, #0
   11800:	e8bd8070 	pop	{r4, r5, r6, pc}
   11804:	e1906081 	orrs	r6, r0, r1, lsl #1
   11808:	01a00002 	moveq	r0, r2
   1180c:	01a01003 	moveq	r1, r3
   11810:	11926083 	orrsne	r6, r2, r3, lsl #1
   11814:	0a00000f 	beq	11858 <KeccakP200_ExtractAndAddBytes+0x28c>
   11818:	e134000c 	teq	r4, ip
   1181c:	1a000001 	bne	11828 <KeccakP200_ExtractAndAddBytes+0x25c>
   11820:	e1906601 	orrs	r6, r0, r1, lsl #12
   11824:	1a00000b 	bne	11858 <KeccakP200_ExtractAndAddBytes+0x28c>
   11828:	e135000c 	teq	r5, ip
   1182c:	1a000003 	bne	11840 <KeccakP200_ExtractAndAddBytes+0x274>
   11830:	e1926603 	orrs	r6, r2, r3, lsl #12
   11834:	11a00002 	movne	r0, r2
   11838:	11a01003 	movne	r1, r3
   1183c:	1a000005 	bne	11858 <KeccakP200_ExtractAndAddBytes+0x28c>
   11840:	e0211003 	eor	r1, r1, r3
   11844:	e2011102 	and	r1, r1, #-2147483648	; 0x80000000
   11848:	e381147f 	orr	r1, r1, #2130706432	; 0x7f000000
   1184c:	e381160f 	orr	r1, r1, #15728640	; 0xf00000
   11850:	e3a00000 	mov	r0, #0
   11854:	e8bd8070 	pop	{r4, r5, r6, pc}
   11858:	e381147f 	orr	r1, r1, #2130706432	; 0x7f000000
   1185c:	e381173e 	orr	r1, r1, #16252928	; 0xf80000
   11860:	e8bd8070 	pop	{r4, r5, r6, pc}

00011864 <__aeabi_drsub>:
   11864:	e2211102 	eor	r1, r1, #-2147483648	; 0x80000000
   11868:	ea000000 	b	11870 <__adddf3>

0001186c <__aeabi_dsub>:
   1186c:	e2233102 	eor	r3, r3, #-2147483648	; 0x80000000

00011870 <__adddf3>:
   11870:	e92d4030 	push	{r4, r5, lr}
   11874:	e1a04081 	lsl	r4, r1, #1
   11878:	e1a05083 	lsl	r5, r3, #1
   1187c:	e1340005 	teq	r4, r5
   11880:	01300002 	teqeq	r0, r2
   11884:	1194c000 	orrsne	ip, r4, r0
   11888:	1195c002 	orrsne	ip, r5, r2
   1188c:	11f0cac4 	mvnsne	ip, r4, asr #21
   11890:	11f0cac5 	mvnsne	ip, r5, asr #21
   11894:	0a000079 	beq	11a80 <__adddf3+0x210>
   11898:	e1a04aa4 	lsr	r4, r4, #21
   1189c:	e0745aa5 	rsbs	r5, r4, r5, lsr #21
   118a0:	b2655000 	rsblt	r5, r5, #0
   118a4:	da000006 	ble	118c4 <__adddf3+0x54>
   118a8:	e0844005 	add	r4, r4, r5
   118ac:	e0202002 	eor	r2, r0, r2
   118b0:	e0213003 	eor	r3, r1, r3
   118b4:	e0220000 	eor	r0, r2, r0
   118b8:	e0231001 	eor	r1, r3, r1
   118bc:	e0202002 	eor	r2, r0, r2
   118c0:	e0213003 	eor	r3, r1, r3
   118c4:	e3550036 	cmp	r5, #54	; 0x36
   118c8:	88bd8030 	pophi	{r4, r5, pc}
   118cc:	e3110102 	tst	r1, #-2147483648	; 0x80000000
   118d0:	e1a01601 	lsl	r1, r1, #12
   118d4:	e3a0c601 	mov	ip, #1048576	; 0x100000
   118d8:	e18c1621 	orr	r1, ip, r1, lsr #12
   118dc:	0a000001 	beq	118e8 <__adddf3+0x78>
   118e0:	e2700000 	rsbs	r0, r0, #0
   118e4:	e2e11000 	rsc	r1, r1, #0
   118e8:	e3130102 	tst	r3, #-2147483648	; 0x80000000
   118ec:	e1a03603 	lsl	r3, r3, #12
   118f0:	e18c3623 	orr	r3, ip, r3, lsr #12
   118f4:	0a000001 	beq	11900 <__adddf3+0x90>
   118f8:	e2722000 	rsbs	r2, r2, #0
   118fc:	e2e33000 	rsc	r3, r3, #0
   11900:	e1340005 	teq	r4, r5
   11904:	0a000057 	beq	11a68 <__adddf3+0x1f8>
   11908:	e2444001 	sub	r4, r4, #1
   1190c:	e275e020 	rsbs	lr, r5, #32
   11910:	ba000005 	blt	1192c <__adddf3+0xbc>
   11914:	e1a0ce12 	lsl	ip, r2, lr
   11918:	e0900532 	adds	r0, r0, r2, lsr r5
   1191c:	e2a11000 	adc	r1, r1, #0
   11920:	e0900e13 	adds	r0, r0, r3, lsl lr
   11924:	e0b11553 	adcs	r1, r1, r3, asr r5
   11928:	ea000006 	b	11948 <__adddf3+0xd8>
   1192c:	e2455020 	sub	r5, r5, #32
   11930:	e28ee020 	add	lr, lr, #32
   11934:	e3520001 	cmp	r2, #1
   11938:	e1a0ce13 	lsl	ip, r3, lr
   1193c:	238cc002 	orrcs	ip, ip, #2
   11940:	e0900553 	adds	r0, r0, r3, asr r5
   11944:	e0b11fc3 	adcs	r1, r1, r3, asr #31
   11948:	e2015102 	and	r5, r1, #-2147483648	; 0x80000000
   1194c:	5a000002 	bpl	1195c <__adddf3+0xec>
   11950:	e27cc000 	rsbs	ip, ip, #0
   11954:	e2f00000 	rscs	r0, r0, #0
   11958:	e2e11000 	rsc	r1, r1, #0
   1195c:	e3510601 	cmp	r1, #1048576	; 0x100000
   11960:	3a00000e 	bcc	119a0 <__adddf3+0x130>
   11964:	e3510602 	cmp	r1, #2097152	; 0x200000
   11968:	3a000006 	bcc	11988 <__adddf3+0x118>
   1196c:	e1b010a1 	lsrs	r1, r1, #1
   11970:	e1b00060 	rrxs	r0, r0
   11974:	e1a0c06c 	rrx	ip, ip
   11978:	e2844001 	add	r4, r4, #1
   1197c:	e1a02a84 	lsl	r2, r4, #21
   11980:	e3720501 	cmn	r2, #4194304	; 0x400000
   11984:	2a000055 	bcs	11ae0 <__adddf3+0x270>
   11988:	e35c0102 	cmp	ip, #-2147483648	; 0x80000000
   1198c:	01b0c0a0 	lsrseq	ip, r0, #1
   11990:	e2b00000 	adcs	r0, r0, #0
   11994:	e0a11a04 	adc	r1, r1, r4, lsl #20
   11998:	e1811005 	orr	r1, r1, r5
   1199c:	e8bd8030 	pop	{r4, r5, pc}
   119a0:	e1b0c08c 	lsls	ip, ip, #1
   119a4:	e0b00000 	adcs	r0, r0, r0
   119a8:	e0a11001 	adc	r1, r1, r1
   119ac:	e2544001 	subs	r4, r4, #1
   119b0:	23510601 	cmpcs	r1, #1048576	; 0x100000
   119b4:	2afffff3 	bcs	11988 <__adddf3+0x118>
   119b8:	e3310000 	teq	r1, #0
   119bc:	01a01000 	moveq	r1, r0
   119c0:	03a00000 	moveq	r0, #0
   119c4:	e16f3f11 	clz	r3, r1
   119c8:	02833020 	addeq	r3, r3, #32
   119cc:	e243300b 	sub	r3, r3, #11
   119d0:	e2532020 	subs	r2, r3, #32
   119d4:	aa000007 	bge	119f8 <__adddf3+0x188>
   119d8:	e292200c 	adds	r2, r2, #12
   119dc:	da000004 	ble	119f4 <__adddf3+0x184>
   119e0:	e282c014 	add	ip, r2, #20
   119e4:	e262200c 	rsb	r2, r2, #12
   119e8:	e1a00c11 	lsl	r0, r1, ip
   119ec:	e1a01231 	lsr	r1, r1, r2
   119f0:	ea000004 	b	11a08 <__adddf3+0x198>
   119f4:	e2822014 	add	r2, r2, #20
   119f8:	d262c020 	rsble	ip, r2, #32
   119fc:	e1a01211 	lsl	r1, r1, r2
   11a00:	d1811c30 	orrle	r1, r1, r0, lsr ip
   11a04:	d1a00210 	lslle	r0, r0, r2
   11a08:	e0544003 	subs	r4, r4, r3
   11a0c:	a0811a04 	addge	r1, r1, r4, lsl #20
   11a10:	a1811005 	orrge	r1, r1, r5
   11a14:	a8bd8030 	popge	{r4, r5, pc}
   11a18:	e1e04004 	mvn	r4, r4
   11a1c:	e254401f 	subs	r4, r4, #31
   11a20:	aa00000d 	bge	11a5c <__adddf3+0x1ec>
   11a24:	e294400c 	adds	r4, r4, #12
   11a28:	ca000005 	bgt	11a44 <__adddf3+0x1d4>
   11a2c:	e2844014 	add	r4, r4, #20
   11a30:	e2642020 	rsb	r2, r4, #32
   11a34:	e1a00430 	lsr	r0, r0, r4
   11a38:	e1800211 	orr	r0, r0, r1, lsl r2
   11a3c:	e1851431 	orr	r1, r5, r1, lsr r4
   11a40:	e8bd8030 	pop	{r4, r5, pc}
   11a44:	e264400c 	rsb	r4, r4, #12
   11a48:	e2642020 	rsb	r2, r4, #32
   11a4c:	e1a00230 	lsr	r0, r0, r2
   11a50:	e1800411 	orr	r0, r0, r1, lsl r4
   11a54:	e1a01005 	mov	r1, r5
   11a58:	e8bd8030 	pop	{r4, r5, pc}
   11a5c:	e1a00431 	lsr	r0, r1, r4
   11a60:	e1a01005 	mov	r1, r5
   11a64:	e8bd8030 	pop	{r4, r5, pc}
   11a68:	e3340000 	teq	r4, #0
   11a6c:	e2233601 	eor	r3, r3, #1048576	; 0x100000
   11a70:	02211601 	eoreq	r1, r1, #1048576	; 0x100000
   11a74:	02844001 	addeq	r4, r4, #1
   11a78:	12455001 	subne	r5, r5, #1
   11a7c:	eaffffa1 	b	11908 <__adddf3+0x98>
   11a80:	e1f0cac4 	mvns	ip, r4, asr #21
   11a84:	11f0cac5 	mvnsne	ip, r5, asr #21
   11a88:	0a000018 	beq	11af0 <__adddf3+0x280>
   11a8c:	e1340005 	teq	r4, r5
   11a90:	01300002 	teqeq	r0, r2
   11a94:	0a000003 	beq	11aa8 <__adddf3+0x238>
   11a98:	e194c000 	orrs	ip, r4, r0
   11a9c:	01a01003 	moveq	r1, r3
   11aa0:	01a00002 	moveq	r0, r2
   11aa4:	e8bd8030 	pop	{r4, r5, pc}
   11aa8:	e1310003 	teq	r1, r3
   11aac:	13a01000 	movne	r1, #0
   11ab0:	13a00000 	movne	r0, #0
   11ab4:	18bd8030 	popne	{r4, r5, pc}
   11ab8:	e1b0caa4 	lsrs	ip, r4, #21
   11abc:	1a000003 	bne	11ad0 <__adddf3+0x260>
   11ac0:	e1b00080 	lsls	r0, r0, #1
   11ac4:	e0b11001 	adcs	r1, r1, r1
   11ac8:	23811102 	orrcs	r1, r1, #-2147483648	; 0x80000000
   11acc:	e8bd8030 	pop	{r4, r5, pc}
   11ad0:	e2944501 	adds	r4, r4, #4194304	; 0x400000
   11ad4:	32811601 	addcc	r1, r1, #1048576	; 0x100000
   11ad8:	38bd8030 	popcc	{r4, r5, pc}
   11adc:	e2015102 	and	r5, r1, #-2147483648	; 0x80000000
   11ae0:	e385147f 	orr	r1, r5, #2130706432	; 0x7f000000
   11ae4:	e381160f 	orr	r1, r1, #15728640	; 0xf00000
   11ae8:	e3a00000 	mov	r0, #0
   11aec:	e8bd8030 	pop	{r4, r5, pc}
   11af0:	e1f0cac4 	mvns	ip, r4, asr #21
   11af4:	11a01003 	movne	r1, r3
   11af8:	11a00002 	movne	r0, r2
   11afc:	01f0cac5 	mvnseq	ip, r5, asr #21
   11b00:	11a03001 	movne	r3, r1
   11b04:	11a02000 	movne	r2, r0
   11b08:	e1904601 	orrs	r4, r0, r1, lsl #12
   11b0c:	01925603 	orrseq	r5, r2, r3, lsl #12
   11b10:	01310003 	teqeq	r1, r3
   11b14:	13811702 	orrne	r1, r1, #524288	; 0x80000
   11b18:	e8bd8030 	pop	{r4, r5, pc}

00011b1c <__aeabi_ui2d>:
   11b1c:	e3300000 	teq	r0, #0
   11b20:	03a01000 	moveq	r1, #0
   11b24:	012fff1e 	bxeq	lr
   11b28:	e92d4030 	push	{r4, r5, lr}
   11b2c:	e3a04b01 	mov	r4, #1024	; 0x400
   11b30:	e2844032 	add	r4, r4, #50	; 0x32
   11b34:	e3a05000 	mov	r5, #0
   11b38:	e3a01000 	mov	r1, #0
   11b3c:	eaffff9d 	b	119b8 <__adddf3+0x148>

00011b40 <__aeabi_i2d>:
   11b40:	e3300000 	teq	r0, #0
   11b44:	03a01000 	moveq	r1, #0
   11b48:	012fff1e 	bxeq	lr
   11b4c:	e92d4030 	push	{r4, r5, lr}
   11b50:	e3a04b01 	mov	r4, #1024	; 0x400
   11b54:	e2844032 	add	r4, r4, #50	; 0x32
   11b58:	e2105102 	ands	r5, r0, #-2147483648	; 0x80000000
   11b5c:	42600000 	rsbmi	r0, r0, #0
   11b60:	e3a01000 	mov	r1, #0
   11b64:	eaffff93 	b	119b8 <__adddf3+0x148>

00011b68 <__aeabi_f2d>:
   11b68:	e1b02080 	lsls	r2, r0, #1
   11b6c:	e1a011c2 	asr	r1, r2, #3
   11b70:	e1a01061 	rrx	r1, r1
   11b74:	e1a00e02 	lsl	r0, r2, #28
   11b78:	121234ff 	andsne	r3, r2, #-16777216	; 0xff000000
   11b7c:	133304ff 	teqne	r3, #-16777216	; 0xff000000
   11b80:	1221130e 	eorne	r1, r1, #939524096	; 0x38000000
   11b84:	112fff1e 	bxne	lr
   11b88:	e3d224ff 	bics	r2, r2, #-16777216	; 0xff000000
   11b8c:	012fff1e 	bxeq	lr
   11b90:	e33304ff 	teq	r3, #-16777216	; 0xff000000
   11b94:	03811702 	orreq	r1, r1, #524288	; 0x80000
   11b98:	012fff1e 	bxeq	lr
   11b9c:	e92d4030 	push	{r4, r5, lr}
   11ba0:	e3a04d0e 	mov	r4, #896	; 0x380
   11ba4:	e2015102 	and	r5, r1, #-2147483648	; 0x80000000
   11ba8:	e3c11102 	bic	r1, r1, #-2147483648	; 0x80000000
   11bac:	eaffff81 	b	119b8 <__adddf3+0x148>

00011bb0 <__aeabi_ul2d>:
   11bb0:	e1902001 	orrs	r2, r0, r1
   11bb4:	012fff1e 	bxeq	lr
   11bb8:	e92d4030 	push	{r4, r5, lr}
   11bbc:	e3a05000 	mov	r5, #0
   11bc0:	ea000006 	b	11be0 <__aeabi_l2d+0x1c>

00011bc4 <__aeabi_l2d>:
   11bc4:	e1902001 	orrs	r2, r0, r1
   11bc8:	012fff1e 	bxeq	lr
   11bcc:	e92d4030 	push	{r4, r5, lr}
   11bd0:	e2115102 	ands	r5, r1, #-2147483648	; 0x80000000
   11bd4:	5a000001 	bpl	11be0 <__aeabi_l2d+0x1c>
   11bd8:	e2700000 	rsbs	r0, r0, #0
   11bdc:	e2e11000 	rsc	r1, r1, #0
   11be0:	e3a04b01 	mov	r4, #1024	; 0x400
   11be4:	e2844032 	add	r4, r4, #50	; 0x32
   11be8:	e1b0cb21 	lsrs	ip, r1, #22
   11bec:	0affff5a 	beq	1195c <__adddf3+0xec>
   11bf0:	e3a02003 	mov	r2, #3
   11bf4:	e1b0c1ac 	lsrs	ip, ip, #3
   11bf8:	12822003 	addne	r2, r2, #3
   11bfc:	e1b0c1ac 	lsrs	ip, ip, #3
   11c00:	12822003 	addne	r2, r2, #3
   11c04:	e08221ac 	add	r2, r2, ip, lsr #3
   11c08:	e2623020 	rsb	r3, r2, #32
   11c0c:	e1a0c310 	lsl	ip, r0, r3
   11c10:	e1a00230 	lsr	r0, r0, r2
   11c14:	e1800311 	orr	r0, r0, r1, lsl r3
   11c18:	e1a01231 	lsr	r1, r1, r2
   11c1c:	e0844002 	add	r4, r4, r2
   11c20:	eaffff4d 	b	1195c <__adddf3+0xec>

00011c24 <__aeabi_dmul>:
   11c24:	e92d4070 	push	{r4, r5, r6, lr}
   11c28:	e3a0c0ff 	mov	ip, #255	; 0xff
   11c2c:	e38ccc07 	orr	ip, ip, #1792	; 0x700
   11c30:	e01c4a21 	ands	r4, ip, r1, lsr #20
   11c34:	101c5a23 	andsne	r5, ip, r3, lsr #20
   11c38:	1134000c 	teqne	r4, ip
   11c3c:	1135000c 	teqne	r5, ip
   11c40:	0b00006f 	bleq	11e04 <__aeabi_dmul+0x1e0>
   11c44:	e0844005 	add	r4, r4, r5
   11c48:	e0216003 	eor	r6, r1, r3
   11c4c:	e1c11a8c 	bic	r1, r1, ip, lsl #21
   11c50:	e1c33a8c 	bic	r3, r3, ip, lsl #21
   11c54:	e1905601 	orrs	r5, r0, r1, lsl #12
   11c58:	11925603 	orrsne	r5, r2, r3, lsl #12
   11c5c:	e3811601 	orr	r1, r1, #1048576	; 0x100000
   11c60:	e3833601 	orr	r3, r3, #1048576	; 0x100000
   11c64:	0a00001c 	beq	11cdc <__aeabi_dmul+0xb8>
   11c68:	e08ec290 	umull	ip, lr, r0, r2
   11c6c:	e3a05000 	mov	r5, #0
   11c70:	e0a5e291 	umlal	lr, r5, r1, r2
   11c74:	e2062102 	and	r2, r6, #-2147483648	; 0x80000000
   11c78:	e0a5e390 	umlal	lr, r5, r0, r3
   11c7c:	e3a06000 	mov	r6, #0
   11c80:	e0a65391 	umlal	r5, r6, r1, r3
   11c84:	e33c0000 	teq	ip, #0
   11c88:	138ee001 	orrne	lr, lr, #1
   11c8c:	e24440ff 	sub	r4, r4, #255	; 0xff
   11c90:	e3560c02 	cmp	r6, #512	; 0x200
   11c94:	e2c44c03 	sbc	r4, r4, #768	; 0x300
   11c98:	2a000002 	bcs	11ca8 <__aeabi_dmul+0x84>
   11c9c:	e1b0e08e 	lsls	lr, lr, #1
   11ca0:	e0b55005 	adcs	r5, r5, r5
   11ca4:	e0a66006 	adc	r6, r6, r6
   11ca8:	e1821586 	orr	r1, r2, r6, lsl #11
   11cac:	e1811aa5 	orr	r1, r1, r5, lsr #21
   11cb0:	e1a00585 	lsl	r0, r5, #11
   11cb4:	e1800aae 	orr	r0, r0, lr, lsr #21
   11cb8:	e1a0e58e 	lsl	lr, lr, #11
   11cbc:	e254c0fd 	subs	ip, r4, #253	; 0xfd
   11cc0:	835c0c07 	cmphi	ip, #1792	; 0x700
   11cc4:	8a00000f 	bhi	11d08 <__aeabi_dmul+0xe4>
   11cc8:	e35e0102 	cmp	lr, #-2147483648	; 0x80000000
   11ccc:	01b0e0a0 	lsrseq	lr, r0, #1
   11cd0:	e2b00000 	adcs	r0, r0, #0
   11cd4:	e0a11a04 	adc	r1, r1, r4, lsl #20
   11cd8:	e8bd8070 	pop	{r4, r5, r6, pc}
   11cdc:	e2066102 	and	r6, r6, #-2147483648	; 0x80000000
   11ce0:	e1861001 	orr	r1, r6, r1
   11ce4:	e1800002 	orr	r0, r0, r2
   11ce8:	e0211003 	eor	r1, r1, r3
   11cec:	e05440ac 	subs	r4, r4, ip, lsr #1
   11cf0:	c074500c 	rsbsgt	r5, r4, ip
   11cf4:	c1811a04 	orrgt	r1, r1, r4, lsl #20
   11cf8:	c8bd8070 	popgt	{r4, r5, r6, pc}
   11cfc:	e3811601 	orr	r1, r1, #1048576	; 0x100000
   11d00:	e3a0e000 	mov	lr, #0
   11d04:	e2544001 	subs	r4, r4, #1
   11d08:	ca000058 	bgt	11e70 <__aeabi_dmul+0x24c>
   11d0c:	e3740036 	cmn	r4, #54	; 0x36
   11d10:	d3a00000 	movle	r0, #0
   11d14:	d2011102 	andle	r1, r1, #-2147483648	; 0x80000000
   11d18:	d8bd8070 	pople	{r4, r5, r6, pc}
   11d1c:	e2644000 	rsb	r4, r4, #0
   11d20:	e2544020 	subs	r4, r4, #32
   11d24:	aa000018 	bge	11d8c <__aeabi_dmul+0x168>
   11d28:	e294400c 	adds	r4, r4, #12
   11d2c:	ca00000b 	bgt	11d60 <__aeabi_dmul+0x13c>
   11d30:	e2844014 	add	r4, r4, #20
   11d34:	e2645020 	rsb	r5, r4, #32
   11d38:	e1a03510 	lsl	r3, r0, r5
   11d3c:	e1a00430 	lsr	r0, r0, r4
   11d40:	e1800511 	orr	r0, r0, r1, lsl r5
   11d44:	e2012102 	and	r2, r1, #-2147483648	; 0x80000000
   11d48:	e3c11102 	bic	r1, r1, #-2147483648	; 0x80000000
   11d4c:	e0900fa3 	adds	r0, r0, r3, lsr #31
   11d50:	e0a21431 	adc	r1, r2, r1, lsr r4
   11d54:	e19ee083 	orrs	lr, lr, r3, lsl #1
   11d58:	01c00fa3 	biceq	r0, r0, r3, lsr #31
   11d5c:	e8bd8070 	pop	{r4, r5, r6, pc}
   11d60:	e264400c 	rsb	r4, r4, #12
   11d64:	e2645020 	rsb	r5, r4, #32
   11d68:	e1a03410 	lsl	r3, r0, r4
   11d6c:	e1a00530 	lsr	r0, r0, r5
   11d70:	e1800411 	orr	r0, r0, r1, lsl r4
   11d74:	e2011102 	and	r1, r1, #-2147483648	; 0x80000000
   11d78:	e0900fa3 	adds	r0, r0, r3, lsr #31
   11d7c:	e2a11000 	adc	r1, r1, #0
   11d80:	e19ee083 	orrs	lr, lr, r3, lsl #1
   11d84:	01c00fa3 	biceq	r0, r0, r3, lsr #31
   11d88:	e8bd8070 	pop	{r4, r5, r6, pc}
   11d8c:	e2645020 	rsb	r5, r4, #32
   11d90:	e18ee510 	orr	lr, lr, r0, lsl r5
   11d94:	e1a03430 	lsr	r3, r0, r4
   11d98:	e1833511 	orr	r3, r3, r1, lsl r5
   11d9c:	e1a00431 	lsr	r0, r1, r4
   11da0:	e2011102 	and	r1, r1, #-2147483648	; 0x80000000
   11da4:	e1c00431 	bic	r0, r0, r1, lsr r4
   11da8:	e0800fa3 	add	r0, r0, r3, lsr #31
   11dac:	e19ee083 	orrs	lr, lr, r3, lsl #1
   11db0:	01c00fa3 	biceq	r0, r0, r3, lsr #31
   11db4:	e8bd8070 	pop	{r4, r5, r6, pc}
   11db8:	e3340000 	teq	r4, #0
   11dbc:	1a000008 	bne	11de4 <__aeabi_dmul+0x1c0>
   11dc0:	e2016102 	and	r6, r1, #-2147483648	; 0x80000000
   11dc4:	e1b00080 	lsls	r0, r0, #1
   11dc8:	e0a11001 	adc	r1, r1, r1
   11dcc:	e3110601 	tst	r1, #1048576	; 0x100000
   11dd0:	02444001 	subeq	r4, r4, #1
   11dd4:	0afffffa 	beq	11dc4 <__aeabi_dmul+0x1a0>
   11dd8:	e1811006 	orr	r1, r1, r6
   11ddc:	e3350000 	teq	r5, #0
   11de0:	112fff1e 	bxne	lr
   11de4:	e2036102 	and	r6, r3, #-2147483648	; 0x80000000
   11de8:	e1b02082 	lsls	r2, r2, #1
   11dec:	e0a33003 	adc	r3, r3, r3
   11df0:	e3130601 	tst	r3, #1048576	; 0x100000
   11df4:	02455001 	subeq	r5, r5, #1
   11df8:	0afffffa 	beq	11de8 <__aeabi_dmul+0x1c4>
   11dfc:	e1833006 	orr	r3, r3, r6
   11e00:	e12fff1e 	bx	lr
   11e04:	e134000c 	teq	r4, ip
   11e08:	e00c5a23 	and	r5, ip, r3, lsr #20
   11e0c:	1135000c 	teqne	r5, ip
   11e10:	0a000006 	beq	11e30 <__aeabi_dmul+0x20c>
   11e14:	e1906081 	orrs	r6, r0, r1, lsl #1
   11e18:	11926083 	orrsne	r6, r2, r3, lsl #1
   11e1c:	1affffe5 	bne	11db8 <__aeabi_dmul+0x194>
   11e20:	e0211003 	eor	r1, r1, r3
   11e24:	e2011102 	and	r1, r1, #-2147483648	; 0x80000000
   11e28:	e3a00000 	mov	r0, #0
   11e2c:	e8bd8070 	pop	{r4, r5, r6, pc}
   11e30:	e1906081 	orrs	r6, r0, r1, lsl #1
   11e34:	01a00002 	moveq	r0, r2
   11e38:	01a01003 	moveq	r1, r3
   11e3c:	11926083 	orrsne	r6, r2, r3, lsl #1
   11e40:	0a00000f 	beq	11e84 <__aeabi_dmul+0x260>
   11e44:	e134000c 	teq	r4, ip
   11e48:	1a000001 	bne	11e54 <__aeabi_dmul+0x230>
   11e4c:	e1906601 	orrs	r6, r0, r1, lsl #12
   11e50:	1a00000b 	bne	11e84 <__aeabi_dmul+0x260>
   11e54:	e135000c 	teq	r5, ip
   11e58:	1a000003 	bne	11e6c <__aeabi_dmul+0x248>
   11e5c:	e1926603 	orrs	r6, r2, r3, lsl #12
   11e60:	11a00002 	movne	r0, r2
   11e64:	11a01003 	movne	r1, r3
   11e68:	1a000005 	bne	11e84 <__aeabi_dmul+0x260>
   11e6c:	e0211003 	eor	r1, r1, r3
   11e70:	e2011102 	and	r1, r1, #-2147483648	; 0x80000000
   11e74:	e381147f 	orr	r1, r1, #2130706432	; 0x7f000000
   11e78:	e381160f 	orr	r1, r1, #15728640	; 0xf00000
   11e7c:	e3a00000 	mov	r0, #0
   11e80:	e8bd8070 	pop	{r4, r5, r6, pc}
   11e84:	e381147f 	orr	r1, r1, #2130706432	; 0x7f000000
   11e88:	e381173e 	orr	r1, r1, #16252928	; 0xf80000
   11e8c:	e8bd8070 	pop	{r4, r5, r6, pc}

00011e90 <__aeabi_ddiv>:
   11e90:	e92d4070 	push	{r4, r5, r6, lr}
   11e94:	e3a0c0ff 	mov	ip, #255	; 0xff
   11e98:	e38ccc07 	orr	ip, ip, #1792	; 0x700
   11e9c:	e01c4a21 	ands	r4, ip, r1, lsr #20
   11ea0:	101c5a23 	andsne	r5, ip, r3, lsr #20
   11ea4:	1134000c 	teqne	r4, ip
   11ea8:	1135000c 	teqne	r5, ip
   11eac:	0b00005c 	bleq	12024 <__aeabi_ddiv+0x194>
   11eb0:	e0444005 	sub	r4, r4, r5
   11eb4:	e021e003 	eor	lr, r1, r3
   11eb8:	e1925603 	orrs	r5, r2, r3, lsl #12
   11ebc:	e1a01601 	lsl	r1, r1, #12
   11ec0:	0a00004b 	beq	11ff4 <__aeabi_ddiv+0x164>
   11ec4:	e1a03603 	lsl	r3, r3, #12
   11ec8:	e3a05201 	mov	r5, #268435456	; 0x10000000
   11ecc:	e1853223 	orr	r3, r5, r3, lsr #4
   11ed0:	e1833c22 	orr	r3, r3, r2, lsr #24
   11ed4:	e1a02402 	lsl	r2, r2, #8
   11ed8:	e1855221 	orr	r5, r5, r1, lsr #4
   11edc:	e1855c20 	orr	r5, r5, r0, lsr #24
   11ee0:	e1a06400 	lsl	r6, r0, #8
   11ee4:	e20e1102 	and	r1, lr, #-2147483648	; 0x80000000
   11ee8:	e1550003 	cmp	r5, r3
   11eec:	01560002 	cmpeq	r6, r2
   11ef0:	e2a440fd 	adc	r4, r4, #253	; 0xfd
   11ef4:	e2844c03 	add	r4, r4, #768	; 0x300
   11ef8:	2a000001 	bcs	11f04 <__aeabi_ddiv+0x74>
   11efc:	e1b030a3 	lsrs	r3, r3, #1
   11f00:	e1a02062 	rrx	r2, r2
   11f04:	e0566002 	subs	r6, r6, r2
   11f08:	e0c55003 	sbc	r5, r5, r3
   11f0c:	e1b030a3 	lsrs	r3, r3, #1
   11f10:	e1a02062 	rrx	r2, r2
   11f14:	e3a00601 	mov	r0, #1048576	; 0x100000
   11f18:	e3a0c702 	mov	ip, #524288	; 0x80000
   11f1c:	e056e002 	subs	lr, r6, r2
   11f20:	e0d5e003 	sbcs	lr, r5, r3
   11f24:	20466002 	subcs	r6, r6, r2
   11f28:	21a0500e 	movcs	r5, lr
   11f2c:	2180000c 	orrcs	r0, r0, ip
   11f30:	e1b030a3 	lsrs	r3, r3, #1
   11f34:	e1a02062 	rrx	r2, r2
   11f38:	e056e002 	subs	lr, r6, r2
   11f3c:	e0d5e003 	sbcs	lr, r5, r3
   11f40:	20466002 	subcs	r6, r6, r2
   11f44:	21a0500e 	movcs	r5, lr
   11f48:	218000ac 	orrcs	r0, r0, ip, lsr #1
   11f4c:	e1b030a3 	lsrs	r3, r3, #1
   11f50:	e1a02062 	rrx	r2, r2
   11f54:	e056e002 	subs	lr, r6, r2
   11f58:	e0d5e003 	sbcs	lr, r5, r3
   11f5c:	20466002 	subcs	r6, r6, r2
   11f60:	21a0500e 	movcs	r5, lr
   11f64:	2180012c 	orrcs	r0, r0, ip, lsr #2
   11f68:	e1b030a3 	lsrs	r3, r3, #1
   11f6c:	e1a02062 	rrx	r2, r2
   11f70:	e056e002 	subs	lr, r6, r2
   11f74:	e0d5e003 	sbcs	lr, r5, r3
   11f78:	20466002 	subcs	r6, r6, r2
   11f7c:	21a0500e 	movcs	r5, lr
   11f80:	218001ac 	orrcs	r0, r0, ip, lsr #3
   11f84:	e195e006 	orrs	lr, r5, r6
   11f88:	0a00000d 	beq	11fc4 <__aeabi_ddiv+0x134>
   11f8c:	e1a05205 	lsl	r5, r5, #4
   11f90:	e1855e26 	orr	r5, r5, r6, lsr #28
   11f94:	e1a06206 	lsl	r6, r6, #4
   11f98:	e1a03183 	lsl	r3, r3, #3
   11f9c:	e1833ea2 	orr	r3, r3, r2, lsr #29
   11fa0:	e1a02182 	lsl	r2, r2, #3
   11fa4:	e1b0c22c 	lsrs	ip, ip, #4
   11fa8:	1affffdb 	bne	11f1c <__aeabi_ddiv+0x8c>
   11fac:	e3110601 	tst	r1, #1048576	; 0x100000
   11fb0:	1a000006 	bne	11fd0 <__aeabi_ddiv+0x140>
   11fb4:	e1811000 	orr	r1, r1, r0
   11fb8:	e3a00000 	mov	r0, #0
   11fbc:	e3a0c102 	mov	ip, #-2147483648	; 0x80000000
   11fc0:	eaffffd5 	b	11f1c <__aeabi_ddiv+0x8c>
   11fc4:	e3110601 	tst	r1, #1048576	; 0x100000
   11fc8:	01811000 	orreq	r1, r1, r0
   11fcc:	03a00000 	moveq	r0, #0
   11fd0:	e254c0fd 	subs	ip, r4, #253	; 0xfd
   11fd4:	835c0c07 	cmphi	ip, #1792	; 0x700
   11fd8:	8affff4a 	bhi	11d08 <__aeabi_dmul+0xe4>
   11fdc:	e055c003 	subs	ip, r5, r3
   11fe0:	0056c002 	subseq	ip, r6, r2
   11fe4:	01b0c0a0 	lsrseq	ip, r0, #1
   11fe8:	e2b00000 	adcs	r0, r0, #0
   11fec:	e0a11a04 	adc	r1, r1, r4, lsl #20
   11ff0:	e8bd8070 	pop	{r4, r5, r6, pc}
   11ff4:	e20ee102 	and	lr, lr, #-2147483648	; 0x80000000
   11ff8:	e18e1621 	orr	r1, lr, r1, lsr #12
   11ffc:	e09440ac 	adds	r4, r4, ip, lsr #1
   12000:	c074500c 	rsbsgt	r5, r4, ip
   12004:	c1811a04 	orrgt	r1, r1, r4, lsl #20
   12008:	c8bd8070 	popgt	{r4, r5, r6, pc}
   1200c:	e3811601 	orr	r1, r1, #1048576	; 0x100000
   12010:	e3a0e000 	mov	lr, #0
   12014:	e2544001 	subs	r4, r4, #1
   12018:	eaffff3a 	b	11d08 <__aeabi_dmul+0xe4>
   1201c:	e185e006 	orr	lr, r5, r6
   12020:	eaffff38 	b	11d08 <__aeabi_dmul+0xe4>
   12024:	e00c5a23 	and	r5, ip, r3, lsr #20
   12028:	e134000c 	teq	r4, ip
   1202c:	0135000c 	teqeq	r5, ip
   12030:	0affff93 	beq	11e84 <__aeabi_dmul+0x260>
   12034:	e134000c 	teq	r4, ip
   12038:	1a000006 	bne	12058 <__aeabi_ddiv+0x1c8>
   1203c:	e1904601 	orrs	r4, r0, r1, lsl #12
   12040:	1affff8f 	bne	11e84 <__aeabi_dmul+0x260>
   12044:	e135000c 	teq	r5, ip
   12048:	1affff87 	bne	11e6c <__aeabi_dmul+0x248>
   1204c:	e1a00002 	mov	r0, r2
   12050:	e1a01003 	mov	r1, r3
   12054:	eaffff8a 	b	11e84 <__aeabi_dmul+0x260>
   12058:	e135000c 	teq	r5, ip
   1205c:	1a000004 	bne	12074 <__aeabi_ddiv+0x1e4>
   12060:	e1925603 	orrs	r5, r2, r3, lsl #12
   12064:	0affff6d 	beq	11e20 <__aeabi_dmul+0x1fc>
   12068:	e1a00002 	mov	r0, r2
   1206c:	e1a01003 	mov	r1, r3
   12070:	eaffff83 	b	11e84 <__aeabi_dmul+0x260>
   12074:	e1906081 	orrs	r6, r0, r1, lsl #1
   12078:	11926083 	orrsne	r6, r2, r3, lsl #1
   1207c:	1affff4d 	bne	11db8 <__aeabi_dmul+0x194>
   12080:	e1904081 	orrs	r4, r0, r1, lsl #1
   12084:	1affff78 	bne	11e6c <__aeabi_dmul+0x248>
   12088:	e1925083 	orrs	r5, r2, r3, lsl #1
   1208c:	1affff63 	bne	11e20 <__aeabi_dmul+0x1fc>
   12090:	eaffff7b 	b	11e84 <__aeabi_dmul+0x260>

Disassembly of section .fini:

00012094 <_fini>:
   12094:	e92d4008 	push	{r3, lr}
   12098:	e8bd8008 	pop	{r3, pc}
